
hashx-malware-medium.exe:     file format pei-x86-64


Disassembly of section .text:

0000000140001000 <.text>:
   140001000:	48 8d 05 61 46 00 00 	lea    rax,[rip+0x4661]        # 0x140005668
   140001007:	c3                   	ret
   140001008:	cc                   	int3
   140001009:	cc                   	int3
   14000100a:	cc                   	int3
   14000100b:	cc                   	int3
   14000100c:	cc                   	int3
   14000100d:	cc                   	int3
   14000100e:	cc                   	int3
   14000100f:	cc                   	int3
   140001010:	48 89 4c 24 08       	mov    QWORD PTR [rsp+0x8],rcx
   140001015:	48 89 54 24 10       	mov    QWORD PTR [rsp+0x10],rdx
   14000101a:	4c 89 44 24 18       	mov    QWORD PTR [rsp+0x18],r8
   14000101f:	4c 89 4c 24 20       	mov    QWORD PTR [rsp+0x20],r9
   140001024:	53                   	push   rbx
   140001025:	56                   	push   rsi
   140001026:	57                   	push   rdi
   140001027:	48 83 ec 30          	sub    rsp,0x30
   14000102b:	48 8b f9             	mov    rdi,rcx
   14000102e:	48 8d 74 24 58       	lea    rsi,[rsp+0x58]
   140001033:	b9 01 00 00 00       	mov    ecx,0x1
   140001038:	ff 15 6a 21 00 00    	call   QWORD PTR [rip+0x216a]        # 0x1400031a8
   14000103e:	48 8b d8             	mov    rbx,rax
   140001041:	e8 ba ff ff ff       	call   0x140001000
   140001046:	45 33 c9             	xor    r9d,r9d
   140001049:	48 89 74 24 20       	mov    QWORD PTR [rsp+0x20],rsi
   14000104e:	4c 8b c7             	mov    r8,rdi
   140001051:	48 8b d3             	mov    rdx,rbx
   140001054:	48 8b 08             	mov    rcx,QWORD PTR [rax]
   140001057:	ff 15 53 21 00 00    	call   QWORD PTR [rip+0x2153]        # 0x1400031b0
   14000105d:	48 83 c4 30          	add    rsp,0x30
   140001061:	5f                   	pop    rdi
   140001062:	5e                   	pop    rsi
   140001063:	5b                   	pop    rbx
   140001064:	c3                   	ret
   140001065:	cc                   	int3
   140001066:	cc                   	int3
   140001067:	cc                   	int3
   140001068:	cc                   	int3
   140001069:	cc                   	int3
   14000106a:	cc                   	int3
   14000106b:	cc                   	int3
   14000106c:	cc                   	int3
   14000106d:	cc                   	int3
   14000106e:	cc                   	int3
   14000106f:	cc                   	int3
   140001070:	48 83 ec 28          	sub    rsp,0x28
   140001074:	ff 15 96 1f 00 00    	call   QWORD PTR [rip+0x1f96]        # 0x140003010
   14000107a:	85 c0                	test   eax,eax
   14000107c:	74 0c                	je     0x14000108a
   14000107e:	b9 01 00 00 00       	mov    ecx,0x1
   140001083:	ff 15 77 1f 00 00    	call   QWORD PTR [rip+0x1f77]        # 0x140003000
   140001089:	cc                   	int3
   14000108a:	ff 15 78 1f 00 00    	call   QWORD PTR [rip+0x1f78]        # 0x140003008
   140001090:	c7 44 24 30 00 00 00 	mov    DWORD PTR [rsp+0x30],0x0
   140001097:	00 
   140001098:	8b 44 24 30          	mov    eax,DWORD PTR [rsp+0x30]
   14000109c:	0f 1f 40 00          	nop    DWORD PTR [rax+0x0]
   1400010a0:	8b 44 24 30          	mov    eax,DWORD PTR [rsp+0x30]
   1400010a4:	ff c0                	inc    eax
   1400010a6:	89 44 24 30          	mov    DWORD PTR [rsp+0x30],eax
   1400010aa:	8b 44 24 30          	mov    eax,DWORD PTR [rsp+0x30]
   1400010ae:	3d 40 42 0f 00       	cmp    eax,0xf4240
   1400010b3:	7c eb                	jl     0x1400010a0
   1400010b5:	48 83 c4 28          	add    rsp,0x28
   1400010b9:	48 ff 25 48 1f 00 00 	rex.W jmp QWORD PTR [rip+0x1f48]        # 0x140003008
   1400010c0:	48 89 5c 24 08       	mov    QWORD PTR [rsp+0x8],rbx
   1400010c5:	48 89 74 24 10       	mov    QWORD PTR [rsp+0x10],rsi
   1400010ca:	48 89 7c 24 18       	mov    QWORD PTR [rsp+0x18],rdi
   1400010cf:	4c 89 64 24 20       	mov    QWORD PTR [rsp+0x20],r12
   1400010d4:	55                   	push   rbp
   1400010d5:	41 56                	push   r14
   1400010d7:	41 57                	push   r15
   1400010d9:	48 8d 6c 24 80       	lea    rbp,[rsp-0x80]
   1400010de:	48 81 ec 80 01 00 00 	sub    rsp,0x180
   1400010e5:	48 8b 05 14 3f 00 00 	mov    rax,QWORD PTR [rip+0x3f14]        # 0x140005000
   1400010ec:	48 33 c4             	xor    rax,rsp
   1400010ef:	48 89 45 70          	mov    QWORD PTR [rbp+0x70],rax
   1400010f3:	0f 57 c0             	xorps  xmm0,xmm0
   1400010f6:	c7 44 24 30 1f 1e 1a 	mov    DWORD PTR [rsp+0x30],0x1a1a1e1f
   1400010fd:	1a 
   1400010fe:	33 c0                	xor    eax,eax
   140001100:	66 c7 44 24 34 1b 4f 	mov    WORD PTR [rsp+0x34],0x4f1b
   140001107:	0f 11 44 24 37       	movups XMMWORD PTR [rsp+0x37],xmm0
   14000110c:	48 89 44 24 57       	mov    QWORD PTR [rsp+0x57],rax
   140001111:	45 33 f6             	xor    r14d,r14d
   140001114:	0f 11 44 24 47       	movups XMMWORD PTR [rsp+0x47],xmm0
   140001119:	48 89 45 8b          	mov    QWORD PTR [rbp-0x75],rax
   14000111d:	48 8d 7c 24 30       	lea    rdi,[rsp+0x30]
   140001122:	0f 11 44 24 6b       	movups XMMWORD PTR [rsp+0x6b],xmm0
   140001127:	88 45 97             	mov    BYTE PTR [rbp-0x69],al
   14000112a:	41 bf 04 00 00 00    	mov    r15d,0x4
   140001130:	0f 11 44 24 7b       	movups XMMWORD PTR [rsp+0x7b],xmm0
   140001135:	48 89 45 b8          	mov    QWORD PTR [rbp-0x48],rax
   140001139:	49 c7 c4 ff ff ff ff 	mov    r12,0xffffffffffffffff
   140001140:	0f 11 45 98          	movups XMMWORD PTR [rbp-0x68],xmm0
   140001144:	89 45 c0             	mov    DWORD PTR [rbp-0x40],eax
   140001147:	0f 11 45 a8          	movups XMMWORD PTR [rbp-0x58],xmm0
   14000114b:	88 45 ca             	mov    BYTE PTR [rbp-0x36],al
   14000114e:	0f 11 45 cb          	movups XMMWORD PTR [rbp-0x35],xmm0
   140001152:	48 89 45 eb          	mov    QWORD PTR [rbp-0x15],rax
   140001156:	0f 11 45 db          	movups XMMWORD PTR [rbp-0x25],xmm0
   14000115a:	89 45 f3             	mov    DWORD PTR [rbp-0xd],eax
   14000115d:	88 45 f7             	mov    BYTE PTR [rbp-0x9],al
   140001160:	0f 11 45 00          	movups XMMWORD PTR [rbp+0x0],xmm0
   140001164:	89 45 60             	mov    DWORD PTR [rbp+0x60],eax
   140001167:	0f 11 45 10          	movups XMMWORD PTR [rbp+0x10],xmm0
   14000116b:	c6 44 24 36 00       	mov    BYTE PTR [rsp+0x36],0x0
   140001170:	0f 11 45 20          	movups XMMWORD PTR [rbp+0x20],xmm0
   140001174:	c7 44 24 5f 00 00 00 	mov    DWORD PTR [rsp+0x5f],0x26000000
   14000117b:	26 
   14000117c:	0f 11 45 30          	movups XMMWORD PTR [rbp+0x30],xmm0
   140001180:	c7 44 24 63 67 72 41 	mov    DWORD PTR [rsp+0x63],0x47417267
   140001187:	47 
   140001188:	0f 11 45 40          	movups XMMWORD PTR [rbp+0x40],xmm0
   14000118c:	c7 44 24 67 32 42 45 	mov    DWORD PTR [rsp+0x67],0x454232
   140001193:	00 
   140001194:	0f 11 45 50          	movups XMMWORD PTR [rbp+0x50],xmm0
   140001198:	c7 45 93 00 26 1e 26 	mov    DWORD PTR [rbp-0x6d],0x261e2600
   14000119f:	c7 45 c4 00 00 26 64 	mov    DWORD PTR [rbp-0x3c],0x64260000
   1400011a6:	66 c7 45 c8 64 4f    	mov    WORD PTR [rbp-0x38],0x4f64
   1400011ac:	0f 1f 40 00          	nop    DWORD PTR [rax+0x0]
   1400011b0:	49 8b dc             	mov    rbx,r12
   1400011b3:	48 ff c3             	inc    rbx
   1400011b6:	80 3c 1f 00          	cmp    BYTE PTR [rdi+rbx*1],0x0
   1400011ba:	75 f7                	jne    0x1400011b3
   1400011bc:	48 8b cb             	mov    rcx,rbx
   1400011bf:	48 83 c1 01          	add    rcx,0x1
   1400011c3:	49 0f 42 cc          	cmovb  rcx,r12
   1400011c7:	ff 15 fb 1e 00 00    	call   QWORD PTR [rip+0x1efb]        # 0x1400030c8
   1400011cd:	48 8b f0             	mov    rsi,rax
   1400011d0:	48 85 db             	test   rbx,rbx
   1400011d3:	74 30                	je     0x140001205
   1400011d5:	49 8b ce             	mov    rcx,r14
   1400011d8:	4c 8d 4c 24 30       	lea    r9,[rsp+0x30]
   1400011dd:	48 2b c8             	sub    rcx,rax
   1400011e0:	48 8b d0             	mov    rdx,rax
   1400011e3:	4c 03 c9             	add    r9,rcx
   1400011e6:	4c 8b c3             	mov    r8,rbx
   1400011e9:	0f 1f 80 00 00 00 00 	nop    DWORD PTR [rax+0x0]
   1400011f0:	42 0f b6 0c 0a       	movzx  ecx,BYTE PTR [rdx+r9*1]
   1400011f5:	48 8d 52 01          	lea    rdx,[rdx+0x1]
   1400011f9:	80 f1 55             	xor    cl,0x55
   1400011fc:	88 4a ff             	mov    BYTE PTR [rdx-0x1],cl
   1400011ff:	49 83 e8 01          	sub    r8,0x1
   140001203:	75 eb                	jne    0x1400011f0
   140001205:	4c 8b c6             	mov    r8,rsi
   140001208:	c6 04 18 00          	mov    BYTE PTR [rax+rbx*1],0x0
   14000120c:	ba 64 00 00 00       	mov    edx,0x64
   140001211:	48 8d 4d 00          	lea    rcx,[rbp+0x0]
   140001215:	ff 15 ad 1f 00 00    	call   QWORD PTR [rip+0x1fad]        # 0x1400031c8
   14000121b:	48 8b ce             	mov    rcx,rsi
   14000121e:	ff 15 ac 1e 00 00    	call   QWORD PTR [rip+0x1eac]        # 0x1400030d0
   140001224:	48 83 c7 32          	add    rdi,0x32
   140001228:	49 83 c6 32          	add    r14,0x32
   14000122c:	49 83 ef 01          	sub    r15,0x1
   140001230:	0f 85 7a ff ff ff    	jne    0x1400011b0
   140001236:	b9 11 00 00 00       	mov    ecx,0x11
   14000123b:	ff 15 87 1e 00 00    	call   QWORD PTR [rip+0x1e87]        # 0x1400030c8
   140001241:	48 8d 15 48 20 00 00 	lea    rdx,[rip+0x2048]        # 0x140003290
   140001248:	48 8b c8             	mov    rcx,rax
   14000124b:	48 8b d8             	mov    rbx,rax
   14000124e:	c7 00 53 33 4e 33    	mov    DWORD PTR [rax],0x334e3353
   140001254:	c7 40 04 54 30 52 5f 	mov    DWORD PTR [rax+0x4],0x5f523054
   14000125b:	c7 40 08 48 41 53 5f 	mov    DWORD PTR [rax+0x8],0x5f534148
   140001262:	c7 40 0c 33 31 31 7d 	mov    DWORD PTR [rax+0xc],0x7d313133
   140001269:	44 88 78 10          	mov    BYTE PTR [rax+0x10],r15b
   14000126d:	ff 15 1d 1e 00 00    	call   QWORD PTR [rip+0x1e1d]        # 0x140003090
   140001273:	48 85 c0             	test   rax,rax
   140001276:	74 09                	je     0x140001281
   140001278:	44 89 7c 24 20       	mov    DWORD PTR [rsp+0x20],r15d
   14000127d:	8b 44 24 20          	mov    eax,DWORD PTR [rsp+0x20]
   140001281:	48 8b cb             	mov    rcx,rbx
   140001284:	ff 15 46 1e 00 00    	call   QWORD PTR [rip+0x1e46]        # 0x1400030d0
   14000128a:	48 8b 4d 70          	mov    rcx,QWORD PTR [rbp+0x70]
   14000128e:	48 33 cc             	xor    rcx,rsp
   140001291:	e8 ca 00 00 00       	call   0x140001360
   140001296:	4c 8d 9c 24 80 01 00 	lea    r11,[rsp+0x180]
   14000129d:	00 
   14000129e:	49 8b 5b 20          	mov    rbx,QWORD PTR [r11+0x20]
   1400012a2:	49 8b 73 28          	mov    rsi,QWORD PTR [r11+0x28]
   1400012a6:	49 8b 7b 30          	mov    rdi,QWORD PTR [r11+0x30]
   1400012aa:	4d 8b 63 38          	mov    r12,QWORD PTR [r11+0x38]
   1400012ae:	49 8b e3             	mov    rsp,r11
   1400012b1:	41 5f                	pop    r15
   1400012b3:	41 5e                	pop    r14
   1400012b5:	5d                   	pop    rbp
   1400012b6:	c3                   	ret
   1400012b7:	cc                   	int3
   1400012b8:	cc                   	int3
   1400012b9:	cc                   	int3
   1400012ba:	cc                   	int3
   1400012bb:	cc                   	int3
   1400012bc:	cc                   	int3
   1400012bd:	cc                   	int3
   1400012be:	cc                   	int3
   1400012bf:	cc                   	int3
   1400012c0:	c7 44 24 08 00 00 00 	mov    DWORD PTR [rsp+0x8],0x0
   1400012c7:	00 
   1400012c8:	8b 44 24 08          	mov    eax,DWORD PTR [rsp+0x8]
   1400012cc:	ff c0                	inc    eax
   1400012ce:	89 44 24 08          	mov    DWORD PTR [rsp+0x8],eax
   1400012d2:	8b 44 24 08          	mov    eax,DWORD PTR [rsp+0x8]
   1400012d6:	ff c0                	inc    eax
   1400012d8:	89 44 24 08          	mov    DWORD PTR [rsp+0x8],eax
   1400012dc:	8b 44 24 08          	mov    eax,DWORD PTR [rsp+0x8]
   1400012e0:	ff c0                	inc    eax
   1400012e2:	89 44 24 08          	mov    DWORD PTR [rsp+0x8],eax
   1400012e6:	8b 44 24 08          	mov    eax,DWORD PTR [rsp+0x8]
   1400012ea:	eb 00                	jmp    0x1400012ec
   1400012ec:	c3                   	ret
   1400012ed:	cc                   	int3
   1400012ee:	cc                   	int3
   1400012ef:	cc                   	int3
   1400012f0:	48 83 ec 28          	sub    rsp,0x28
   1400012f4:	e8 77 fd ff ff       	call   0x140001070
   1400012f9:	e8 c2 ff ff ff       	call   0x1400012c0
   1400012fe:	e8 bd fd ff ff       	call   0x1400010c0
   140001303:	48 8d 0d 8e 1f 00 00 	lea    rcx,[rip+0x1f8e]        # 0x140003298
   14000130a:	e8 01 fd ff ff       	call   0x140001010
   14000130f:	48 8d 0d aa 1f 00 00 	lea    rcx,[rip+0x1faa]        # 0x1400032c0
   140001316:	e8 f5 fc ff ff       	call   0x140001010
   14000131b:	b9 0a 00 00 00       	mov    ecx,0xa
   140001320:	c7 44 24 30 00 00 00 	mov    DWORD PTR [rsp+0x30],0x0
   140001327:	00 
   140001328:	0f 1f 84 00 00 00 00 	nop    DWORD PTR [rax+rax*1+0x0]
   14000132f:	00 
   140001330:	8b 44 24 30          	mov    eax,DWORD PTR [rsp+0x30]
   140001334:	ff c0                	inc    eax
   140001336:	89 44 24 30          	mov    DWORD PTR [rsp+0x30],eax
   14000133a:	48 83 e9 01          	sub    rcx,0x1
   14000133e:	75 f0                	jne    0x140001330
   140001340:	33 c0                	xor    eax,eax
   140001342:	48 83 c4 28          	add    rsp,0x28
   140001346:	c3                   	ret
   140001347:	cc                   	int3
   140001348:	cc                   	int3
   140001349:	cc                   	int3
   14000134a:	cc                   	int3
   14000134b:	cc                   	int3
   14000134c:	cc                   	int3
   14000134d:	cc                   	int3
   14000134e:	cc                   	int3
   14000134f:	cc                   	int3
   140001350:	cc                   	int3
   140001351:	cc                   	int3
   140001352:	cc                   	int3
   140001353:	cc                   	int3
   140001354:	cc                   	int3
   140001355:	cc                   	int3
   140001356:	66 66 0f 1f 84 00 00 	data16 nop WORD PTR [rax+rax*1+0x0]
   14000135d:	00 00 00 
   140001360:	48 3b 0d 99 3c 00 00 	cmp    rcx,QWORD PTR [rip+0x3c99]        # 0x140005000
   140001367:	75 10                	jne    0x140001379
   140001369:	48 c1 c1 10          	rol    rcx,0x10
   14000136d:	66 f7 c1 ff ff       	test   cx,0xffff
   140001372:	75 01                	jne    0x140001375
   140001374:	c3                   	ret
   140001375:	48 c1 c9 10          	ror    rcx,0x10
   140001379:	e9 aa 02 00 00       	jmp    0x140001628
   14000137e:	cc                   	int3
   14000137f:	cc                   	int3
   140001380:	40 53                	rex push rbx
   140001382:	48 83 ec 20          	sub    rsp,0x20
   140001386:	b9 01 00 00 00       	mov    ecx,0x1
   14000138b:	e8 9e 0c 00 00       	call   0x14000202e
   140001390:	e8 d7 06 00 00       	call   0x140001a6c
   140001395:	8b c8                	mov    ecx,eax
   140001397:	e8 c8 0c 00 00       	call   0x140002064
   14000139c:	e8 bf 06 00 00       	call   0x140001a60
   1400013a1:	8b d8                	mov    ebx,eax
   1400013a3:	e8 ec 0c 00 00       	call   0x140002094
   1400013a8:	b9 01 00 00 00       	mov    ecx,0x1
   1400013ad:	89 18                	mov    DWORD PTR [rax],ebx
   1400013af:	e8 34 04 00 00       	call   0x1400017e8
   1400013b4:	84 c0                	test   al,al
   1400013b6:	74 73                	je     0x14000142b
   1400013b8:	e8 37 09 00 00       	call   0x140001cf4
   1400013bd:	48 8d 0d 6c 09 00 00 	lea    rcx,[rip+0x96c]        # 0x140001d30
   1400013c4:	e8 cf 05 00 00       	call   0x140001998
   1400013c9:	e8 96 06 00 00       	call   0x140001a64
   1400013ce:	8b c8                	mov    ecx,eax
   1400013d0:	e8 65 0c 00 00       	call   0x14000203a
   1400013d5:	85 c0                	test   eax,eax
   1400013d7:	75 52                	jne    0x14000142b
   1400013d9:	e8 96 06 00 00       	call   0x140001a74
   1400013de:	e8 cd 06 00 00       	call   0x140001ab0
   1400013e3:	85 c0                	test   eax,eax
   1400013e5:	74 0c                	je     0x1400013f3
   1400013e7:	48 8d 0d 72 06 00 00 	lea    rcx,[rip+0x672]        # 0x140001a60
   1400013ee:	e8 41 0c 00 00       	call   0x140002034
   1400013f3:	e8 90 06 00 00       	call   0x140001a88
   1400013f8:	e8 8b 06 00 00       	call   0x140001a88
   1400013fd:	e8 5e 06 00 00       	call   0x140001a60
   140001402:	8b c8                	mov    ecx,eax
   140001404:	e8 7f 0c 00 00       	call   0x140002088
   140001409:	e8 76 06 00 00       	call   0x140001a84
   14000140e:	84 c0                	test   al,al
   140001410:	74 05                	je     0x140001417
   140001412:	e8 29 0c 00 00       	call   0x140002040
   140001417:	e8 44 06 00 00       	call   0x140001a60
   14000141c:	e8 03 08 00 00       	call   0x140001c24
   140001421:	85 c0                	test   eax,eax
   140001423:	75 06                	jne    0x14000142b
   140001425:	48 83 c4 20          	add    rsp,0x20
   140001429:	5b                   	pop    rbx
   14000142a:	c3                   	ret
   14000142b:	b9 07 00 00 00       	mov    ecx,0x7
   140001430:	e8 a3 06 00 00       	call   0x140001ad8
   140001435:	cc                   	int3
   140001436:	cc                   	int3
   140001437:	cc                   	int3
   140001438:	48 83 ec 28          	sub    rsp,0x28
   14000143c:	e8 53 06 00 00       	call   0x140001a94
   140001441:	33 c0                	xor    eax,eax
   140001443:	48 83 c4 28          	add    rsp,0x28
   140001447:	c3                   	ret
   140001448:	48 83 ec 28          	sub    rsp,0x28
   14000144c:	e8 2f 08 00 00       	call   0x140001c80
   140001451:	e8 0a 06 00 00       	call   0x140001a60
   140001456:	8b c8                	mov    ecx,eax
   140001458:	48 83 c4 28          	add    rsp,0x28
   14000145c:	e9 2d 0c 00 00       	jmp    0x14000208e
   140001461:	cc                   	int3
   140001462:	cc                   	int3
   140001463:	cc                   	int3
   140001464:	48 89 5c 24 08       	mov    QWORD PTR [rsp+0x8],rbx
   140001469:	48 89 74 24 10       	mov    QWORD PTR [rsp+0x10],rsi
   14000146e:	57                   	push   rdi
   14000146f:	48 83 ec 30          	sub    rsp,0x30
   140001473:	b9 01 00 00 00       	mov    ecx,0x1
   140001478:	e8 2f 03 00 00       	call   0x1400017ac
   14000147d:	84 c0                	test   al,al
   14000147f:	0f 84 36 01 00 00    	je     0x1400015bb
   140001485:	40 32 f6             	xor    sil,sil
   140001488:	40 88 74 24 20       	mov    BYTE PTR [rsp+0x20],sil
   14000148d:	e8 de 02 00 00       	call   0x140001770
   140001492:	8a d8                	mov    bl,al
   140001494:	8b 0d 56 41 00 00    	mov    ecx,DWORD PTR [rip+0x4156]        # 0x1400055f0
   14000149a:	83 f9 01             	cmp    ecx,0x1
   14000149d:	0f 84 23 01 00 00    	je     0x1400015c6
   1400014a3:	85 c9                	test   ecx,ecx
   1400014a5:	75 4a                	jne    0x1400014f1
   1400014a7:	c7 05 3f 41 00 00 01 	mov    DWORD PTR [rip+0x413f],0x1        # 0x1400055f0
   1400014ae:	00 00 00 
   1400014b1:	48 8d 15 88 1d 00 00 	lea    rdx,[rip+0x1d88]        # 0x140003240
   1400014b8:	48 8d 0d 69 1d 00 00 	lea    rcx,[rip+0x1d69]        # 0x140003228
   1400014bf:	e8 8e 0b 00 00       	call   0x140002052
   1400014c4:	85 c0                	test   eax,eax
   1400014c6:	74 0a                	je     0x1400014d2
   1400014c8:	b8 ff 00 00 00       	mov    eax,0xff
   1400014cd:	e9 d9 00 00 00       	jmp    0x1400015ab
   1400014d2:	48 8d 15 47 1d 00 00 	lea    rdx,[rip+0x1d47]        # 0x140003220
   1400014d9:	48 8d 0d 30 1d 00 00 	lea    rcx,[rip+0x1d30]        # 0x140003210
   1400014e0:	e8 67 0b 00 00       	call   0x14000204c
   1400014e5:	c7 05 01 41 00 00 02 	mov    DWORD PTR [rip+0x4101],0x2        # 0x1400055f0
   1400014ec:	00 00 00 
   1400014ef:	eb 08                	jmp    0x1400014f9
   1400014f1:	40 b6 01             	mov    sil,0x1
   1400014f4:	40 88 74 24 20       	mov    BYTE PTR [rsp+0x20],sil
   1400014f9:	8a cb                	mov    cl,bl
   1400014fb:	e8 0c 04 00 00       	call   0x14000190c
   140001500:	e8 b7 05 00 00       	call   0x140001abc
   140001505:	48 8b d8             	mov    rbx,rax
   140001508:	48 83 38 00          	cmp    QWORD PTR [rax],0x0
   14000150c:	74 1e                	je     0x14000152c
   14000150e:	48 8b c8             	mov    rcx,rax
   140001511:	e8 5e 03 00 00       	call   0x140001874
   140001516:	84 c0                	test   al,al
   140001518:	74 12                	je     0x14000152c
   14000151a:	45 33 c0             	xor    r8d,r8d
   14000151d:	41 8d 50 02          	lea    edx,[r8+0x2]
   140001521:	33 c9                	xor    ecx,ecx
   140001523:	48 8b 03             	mov    rax,QWORD PTR [rbx]
   140001526:	ff 15 bc 1c 00 00    	call   QWORD PTR [rip+0x1cbc]        # 0x1400031e8
   14000152c:	e8 93 05 00 00       	call   0x140001ac4
   140001531:	48 8b d8             	mov    rbx,rax
   140001534:	48 83 38 00          	cmp    QWORD PTR [rax],0x0
   140001538:	74 14                	je     0x14000154e
   14000153a:	48 8b c8             	mov    rcx,rax
   14000153d:	e8 32 03 00 00       	call   0x140001874
   140001542:	84 c0                	test   al,al
   140001544:	74 08                	je     0x14000154e
   140001546:	48 8b 0b             	mov    rcx,QWORD PTR [rbx]
   140001549:	e8 34 0b 00 00       	call   0x140002082
   14000154e:	e8 f3 0a 00 00       	call   0x140002046
   140001553:	48 8b f8             	mov    rdi,rax
   140001556:	e8 15 0b 00 00       	call   0x140002070
   14000155b:	48 8b 18             	mov    rbx,QWORD PTR [rax]
   14000155e:	e8 07 0b 00 00       	call   0x14000206a
   140001563:	4c 8b c7             	mov    r8,rdi
   140001566:	48 8b d3             	mov    rdx,rbx
   140001569:	8b 08                	mov    ecx,DWORD PTR [rax]
   14000156b:	e8 80 fd ff ff       	call   0x1400012f0
   140001570:	8b d8                	mov    ebx,eax
   140001572:	e8 b5 06 00 00       	call   0x140001c2c
   140001577:	84 c0                	test   al,al
   140001579:	74 55                	je     0x1400015d0
   14000157b:	40 84 f6             	test   sil,sil
   14000157e:	75 05                	jne    0x140001585
   140001580:	e8 f1 0a 00 00       	call   0x140002076
   140001585:	33 d2                	xor    edx,edx
   140001587:	b1 01                	mov    cl,0x1
   140001589:	e8 a2 03 00 00       	call   0x140001930
   14000158e:	8b c3                	mov    eax,ebx
   140001590:	eb 19                	jmp    0x1400015ab
   140001592:	8b d8                	mov    ebx,eax
   140001594:	e8 93 06 00 00       	call   0x140001c2c
   140001599:	84 c0                	test   al,al
   14000159b:	74 3b                	je     0x1400015d8
   14000159d:	80 7c 24 20 00       	cmp    BYTE PTR [rsp+0x20],0x0
   1400015a2:	75 05                	jne    0x1400015a9
   1400015a4:	e8 d3 0a 00 00       	call   0x14000207c
   1400015a9:	8b c3                	mov    eax,ebx
   1400015ab:	48 8b 5c 24 40       	mov    rbx,QWORD PTR [rsp+0x40]
   1400015b0:	48 8b 74 24 48       	mov    rsi,QWORD PTR [rsp+0x48]
   1400015b5:	48 83 c4 30          	add    rsp,0x30
   1400015b9:	5f                   	pop    rdi
   1400015ba:	c3                   	ret
   1400015bb:	b9 07 00 00 00       	mov    ecx,0x7
   1400015c0:	e8 13 05 00 00       	call   0x140001ad8
   1400015c5:	90                   	nop
   1400015c6:	b9 07 00 00 00       	mov    ecx,0x7
   1400015cb:	e8 08 05 00 00       	call   0x140001ad8
   1400015d0:	8b cb                	mov    ecx,ebx
   1400015d2:	e8 81 0a 00 00       	call   0x140002058
   1400015d7:	90                   	nop
   1400015d8:	8b cb                	mov    ecx,ebx
   1400015da:	e8 7f 0a 00 00       	call   0x14000205e
   1400015df:	90                   	nop
   1400015e0:	48 83 ec 28          	sub    rsp,0x28
   1400015e4:	e8 c7 03 00 00       	call   0x1400019b0
   1400015e9:	48 83 c4 28          	add    rsp,0x28
   1400015ed:	e9 72 fe ff ff       	jmp    0x140001464
   1400015f2:	cc                   	int3
   1400015f3:	cc                   	int3
   1400015f4:	40 53                	rex push rbx
   1400015f6:	48 83 ec 20          	sub    rsp,0x20
   1400015fa:	48 8b d9             	mov    rbx,rcx
   1400015fd:	33 c9                	xor    ecx,ecx
   1400015ff:	ff 15 2b 1a 00 00    	call   QWORD PTR [rip+0x1a2b]        # 0x140003030
   140001605:	48 8b cb             	mov    rcx,rbx
   140001608:	ff 15 1a 1a 00 00    	call   QWORD PTR [rip+0x1a1a]        # 0x140003028
   14000160e:	ff 15 24 1a 00 00    	call   QWORD PTR [rip+0x1a24]        # 0x140003038
   140001614:	48 8b c8             	mov    rcx,rax
   140001617:	ba 09 04 00 c0       	mov    edx,0xc0000409
   14000161c:	48 83 c4 20          	add    rsp,0x20
   140001620:	5b                   	pop    rbx
   140001621:	48 ff 25 18 1a 00 00 	rex.W jmp QWORD PTR [rip+0x1a18]        # 0x140003040
   140001628:	48 89 4c 24 08       	mov    QWORD PTR [rsp+0x8],rcx
   14000162d:	48 83 ec 38          	sub    rsp,0x38
   140001631:	b9 17 00 00 00       	mov    ecx,0x17
   140001636:	ff 15 0c 1a 00 00    	call   QWORD PTR [rip+0x1a0c]        # 0x140003048
   14000163c:	85 c0                	test   eax,eax
   14000163e:	74 07                	je     0x140001647
   140001640:	b9 02 00 00 00       	mov    ecx,0x2
   140001645:	cd 29                	int    0x29
   140001647:	48 8d 0d d2 3a 00 00 	lea    rcx,[rip+0x3ad2]        # 0x140005120
   14000164e:	e8 a9 00 00 00       	call   0x1400016fc
   140001653:	48 8b 44 24 38       	mov    rax,QWORD PTR [rsp+0x38]
   140001658:	48 89 05 b9 3b 00 00 	mov    QWORD PTR [rip+0x3bb9],rax        # 0x140005218
   14000165f:	48 8d 44 24 38       	lea    rax,[rsp+0x38]
   140001664:	48 83 c0 08          	add    rax,0x8
   140001668:	48 89 05 49 3b 00 00 	mov    QWORD PTR [rip+0x3b49],rax        # 0x1400051b8
   14000166f:	48 8b 05 a2 3b 00 00 	mov    rax,QWORD PTR [rip+0x3ba2]        # 0x140005218
   140001676:	48 89 05 13 3a 00 00 	mov    QWORD PTR [rip+0x3a13],rax        # 0x140005090
   14000167d:	48 8b 44 24 40       	mov    rax,QWORD PTR [rsp+0x40]
   140001682:	48 89 05 17 3b 00 00 	mov    QWORD PTR [rip+0x3b17],rax        # 0x1400051a0
   140001689:	c7 05 ed 39 00 00 09 	mov    DWORD PTR [rip+0x39ed],0xc0000409        # 0x140005080
   140001690:	04 00 c0 
   140001693:	c7 05 e7 39 00 00 01 	mov    DWORD PTR [rip+0x39e7],0x1        # 0x140005084
   14000169a:	00 00 00 
   14000169d:	c7 05 f1 39 00 00 01 	mov    DWORD PTR [rip+0x39f1],0x1        # 0x140005098
   1400016a4:	00 00 00 
   1400016a7:	b8 08 00 00 00       	mov    eax,0x8
   1400016ac:	48 6b c0 00          	imul   rax,rax,0x0
   1400016b0:	48 8d 0d e9 39 00 00 	lea    rcx,[rip+0x39e9]        # 0x1400050a0
   1400016b7:	48 c7 04 01 02 00 00 	mov    QWORD PTR [rcx+rax*1],0x2
   1400016be:	00 
   1400016bf:	b8 08 00 00 00       	mov    eax,0x8
   1400016c4:	48 6b c0 00          	imul   rax,rax,0x0
   1400016c8:	48 8b 0d 31 39 00 00 	mov    rcx,QWORD PTR [rip+0x3931]        # 0x140005000
   1400016cf:	48 89 4c 04 20       	mov    QWORD PTR [rsp+rax*1+0x20],rcx
   1400016d4:	b8 08 00 00 00       	mov    eax,0x8
   1400016d9:	48 6b c0 01          	imul   rax,rax,0x1
   1400016dd:	48 8b 0d 5c 39 00 00 	mov    rcx,QWORD PTR [rip+0x395c]        # 0x140005040
   1400016e4:	48 89 4c 04 20       	mov    QWORD PTR [rsp+rax*1+0x20],rcx
   1400016e9:	48 8d 0d 80 1b 00 00 	lea    rcx,[rip+0x1b80]        # 0x140003270
   1400016f0:	e8 ff fe ff ff       	call   0x1400015f4
   1400016f5:	90                   	nop
   1400016f6:	48 83 c4 38          	add    rsp,0x38
   1400016fa:	c3                   	ret
   1400016fb:	cc                   	int3
   1400016fc:	40 53                	rex push rbx
   1400016fe:	56                   	push   rsi
   1400016ff:	57                   	push   rdi
   140001700:	48 83 ec 40          	sub    rsp,0x40
   140001704:	48 8b d9             	mov    rbx,rcx
   140001707:	ff 15 73 19 00 00    	call   QWORD PTR [rip+0x1973]        # 0x140003080
   14000170d:	48 8b b3 f8 00 00 00 	mov    rsi,QWORD PTR [rbx+0xf8]
   140001714:	33 ff                	xor    edi,edi
   140001716:	45 33 c0             	xor    r8d,r8d
   140001719:	48 8d 54 24 60       	lea    rdx,[rsp+0x60]
   14000171e:	48 8b ce             	mov    rcx,rsi
   140001721:	ff 15 f1 18 00 00    	call   QWORD PTR [rip+0x18f1]        # 0x140003018
   140001727:	48 85 c0             	test   rax,rax
   14000172a:	74 3c                	je     0x140001768
   14000172c:	48 8b 54 24 60       	mov    rdx,QWORD PTR [rsp+0x60]
   140001731:	48 8d 4c 24 68       	lea    rcx,[rsp+0x68]
   140001736:	48 c7 44 24 38 00 00 	mov    QWORD PTR [rsp+0x38],0x0
   14000173d:	00 00 
   14000173f:	4c 8b c8             	mov    r9,rax
   140001742:	48 89 4c 24 30       	mov    QWORD PTR [rsp+0x30],rcx
   140001747:	4c 8b c6             	mov    r8,rsi
   14000174a:	48 8d 4c 24 70       	lea    rcx,[rsp+0x70]
   14000174f:	48 89 4c 24 28       	mov    QWORD PTR [rsp+0x28],rcx
   140001754:	33 c9                	xor    ecx,ecx
   140001756:	48 89 5c 24 20       	mov    QWORD PTR [rsp+0x20],rbx
   14000175b:	ff 15 bf 18 00 00    	call   QWORD PTR [rip+0x18bf]        # 0x140003020
   140001761:	ff c7                	inc    edi
   140001763:	83 ff 02             	cmp    edi,0x2
   140001766:	7c ae                	jl     0x140001716
   140001768:	48 83 c4 40          	add    rsp,0x40
   14000176c:	5f                   	pop    rdi
   14000176d:	5e                   	pop    rsi
   14000176e:	5b                   	pop    rbx
   14000176f:	c3                   	ret
   140001770:	48 83 ec 28          	sub    rsp,0x28
   140001774:	e8 8b 08 00 00       	call   0x140002004
   140001779:	85 c0                	test   eax,eax
   14000177b:	74 21                	je     0x14000179e
   14000177d:	65 48 8b 04 25 30 00 	mov    rax,QWORD PTR gs:0x30
   140001784:	00 00 
   140001786:	48 8b 48 08          	mov    rcx,QWORD PTR [rax+0x8]
   14000178a:	eb 05                	jmp    0x140001791
   14000178c:	48 3b c8             	cmp    rcx,rax
   14000178f:	74 14                	je     0x1400017a5
   140001791:	33 c0                	xor    eax,eax
   140001793:	f0 48 0f b1 0d 5c 3e 	lock cmpxchg QWORD PTR [rip+0x3e5c],rcx        # 0x1400055f8
   14000179a:	00 00 
   14000179c:	75 ee                	jne    0x14000178c
   14000179e:	32 c0                	xor    al,al
   1400017a0:	48 83 c4 28          	add    rsp,0x28
   1400017a4:	c3                   	ret
   1400017a5:	b0 01                	mov    al,0x1
   1400017a7:	eb f7                	jmp    0x1400017a0
   1400017a9:	cc                   	int3
   1400017aa:	cc                   	int3
   1400017ab:	cc                   	int3
   1400017ac:	48 83 ec 28          	sub    rsp,0x28
   1400017b0:	85 c9                	test   ecx,ecx
   1400017b2:	75 07                	jne    0x1400017bb
   1400017b4:	c6 05 45 3e 00 00 01 	mov    BYTE PTR [rip+0x3e45],0x1        # 0x140005600
   1400017bb:	e8 ac 05 00 00       	call   0x140001d6c
   1400017c0:	e8 bf 02 00 00       	call   0x140001a84
   1400017c5:	84 c0                	test   al,al
   1400017c7:	75 04                	jne    0x1400017cd
   1400017c9:	32 c0                	xor    al,al
   1400017cb:	eb 14                	jmp    0x1400017e1
   1400017cd:	e8 b2 02 00 00       	call   0x140001a84
   1400017d2:	84 c0                	test   al,al
   1400017d4:	75 09                	jne    0x1400017df
   1400017d6:	33 c9                	xor    ecx,ecx
   1400017d8:	e8 a7 02 00 00       	call   0x140001a84
   1400017dd:	eb ea                	jmp    0x1400017c9
   1400017df:	b0 01                	mov    al,0x1
   1400017e1:	48 83 c4 28          	add    rsp,0x28
   1400017e5:	c3                   	ret
   1400017e6:	cc                   	int3
   1400017e7:	cc                   	int3
   1400017e8:	40 53                	rex push rbx
   1400017ea:	48 83 ec 20          	sub    rsp,0x20
   1400017ee:	80 3d 0c 3e 00 00 00 	cmp    BYTE PTR [rip+0x3e0c],0x0        # 0x140005601
   1400017f5:	8b d9                	mov    ebx,ecx
   1400017f7:	75 67                	jne    0x140001860
   1400017f9:	83 f9 01             	cmp    ecx,0x1
   1400017fc:	77 6a                	ja     0x140001868
   1400017fe:	e8 01 08 00 00       	call   0x140002004
   140001803:	85 c0                	test   eax,eax
   140001805:	74 28                	je     0x14000182f
   140001807:	85 db                	test   ebx,ebx
   140001809:	75 24                	jne    0x14000182f
   14000180b:	48 8d 0d f6 3d 00 00 	lea    rcx,[rip+0x3df6]        # 0x140005608
   140001812:	e8 83 08 00 00       	call   0x14000209a
   140001817:	85 c0                	test   eax,eax
   140001819:	75 10                	jne    0x14000182b
   14000181b:	48 8d 0d fe 3d 00 00 	lea    rcx,[rip+0x3dfe]        # 0x140005620
   140001822:	e8 73 08 00 00       	call   0x14000209a
   140001827:	85 c0                	test   eax,eax
   140001829:	74 2e                	je     0x140001859
   14000182b:	32 c0                	xor    al,al
   14000182d:	eb 33                	jmp    0x140001862
   14000182f:	66 0f 6f 05 49 1a 00 	movdqa xmm0,XMMWORD PTR [rip+0x1a49]        # 0x140003280
   140001836:	00 
   140001837:	48 83 c8 ff          	or     rax,0xffffffffffffffff
   14000183b:	f3 0f 7f 05 c5 3d 00 	movdqu XMMWORD PTR [rip+0x3dc5],xmm0        # 0x140005608
   140001842:	00 
   140001843:	48 89 05 ce 3d 00 00 	mov    QWORD PTR [rip+0x3dce],rax        # 0x140005618
   14000184a:	f3 0f 7f 05 ce 3d 00 	movdqu XMMWORD PTR [rip+0x3dce],xmm0        # 0x140005620
   140001851:	00 
   140001852:	48 89 05 d7 3d 00 00 	mov    QWORD PTR [rip+0x3dd7],rax        # 0x140005630
   140001859:	c6 05 a1 3d 00 00 01 	mov    BYTE PTR [rip+0x3da1],0x1        # 0x140005601
   140001860:	b0 01                	mov    al,0x1
   140001862:	48 83 c4 20          	add    rsp,0x20
   140001866:	5b                   	pop    rbx
   140001867:	c3                   	ret
   140001868:	b9 05 00 00 00       	mov    ecx,0x5
   14000186d:	e8 66 02 00 00       	call   0x140001ad8
   140001872:	cc                   	int3
   140001873:	cc                   	int3
   140001874:	48 83 ec 18          	sub    rsp,0x18
   140001878:	4c 8b c1             	mov    r8,rcx
   14000187b:	b8 4d 5a 00 00       	mov    eax,0x5a4d
   140001880:	66 39 05 79 e7 ff ff 	cmp    WORD PTR [rip+0xffffffffffffe779],ax        # 0x140000000
   140001887:	75 78                	jne    0x140001901
   140001889:	48 63 0d ac e7 ff ff 	movsxd rcx,DWORD PTR [rip+0xffffffffffffe7ac]        # 0x14000003c
   140001890:	48 8d 15 69 e7 ff ff 	lea    rdx,[rip+0xffffffffffffe769]        # 0x140000000
   140001897:	48 03 ca             	add    rcx,rdx
   14000189a:	81 39 50 45 00 00    	cmp    DWORD PTR [rcx],0x4550
   1400018a0:	75 5f                	jne    0x140001901
   1400018a2:	b8 0b 02 00 00       	mov    eax,0x20b
   1400018a7:	66 39 41 18          	cmp    WORD PTR [rcx+0x18],ax
   1400018ab:	75 54                	jne    0x140001901
   1400018ad:	4c 2b c2             	sub    r8,rdx
   1400018b0:	0f b7 51 14          	movzx  edx,WORD PTR [rcx+0x14]
   1400018b4:	48 83 c2 18          	add    rdx,0x18
   1400018b8:	48 03 d1             	add    rdx,rcx
   1400018bb:	0f b7 41 06          	movzx  eax,WORD PTR [rcx+0x6]
   1400018bf:	48 8d 0c 80          	lea    rcx,[rax+rax*4]
   1400018c3:	4c 8d 0c ca          	lea    r9,[rdx+rcx*8]
   1400018c7:	48 89 14 24          	mov    QWORD PTR [rsp],rdx
   1400018cb:	49 3b d1             	cmp    rdx,r9
   1400018ce:	74 18                	je     0x1400018e8
   1400018d0:	8b 4a 0c             	mov    ecx,DWORD PTR [rdx+0xc]
   1400018d3:	4c 3b c1             	cmp    r8,rcx
   1400018d6:	72 0a                	jb     0x1400018e2
   1400018d8:	8b 42 08             	mov    eax,DWORD PTR [rdx+0x8]
   1400018db:	03 c1                	add    eax,ecx
   1400018dd:	4c 3b c0             	cmp    r8,rax
   1400018e0:	72 08                	jb     0x1400018ea
   1400018e2:	48 83 c2 28          	add    rdx,0x28
   1400018e6:	eb df                	jmp    0x1400018c7
   1400018e8:	33 d2                	xor    edx,edx
   1400018ea:	48 85 d2             	test   rdx,rdx
   1400018ed:	75 04                	jne    0x1400018f3
   1400018ef:	32 c0                	xor    al,al
   1400018f1:	eb 14                	jmp    0x140001907
   1400018f3:	83 7a 24 00          	cmp    DWORD PTR [rdx+0x24],0x0
   1400018f7:	7d 04                	jge    0x1400018fd
   1400018f9:	32 c0                	xor    al,al
   1400018fb:	eb 0a                	jmp    0x140001907
   1400018fd:	b0 01                	mov    al,0x1
   1400018ff:	eb 06                	jmp    0x140001907
   140001901:	32 c0                	xor    al,al
   140001903:	eb 02                	jmp    0x140001907
   140001905:	32 c0                	xor    al,al
   140001907:	48 83 c4 18          	add    rsp,0x18
   14000190b:	c3                   	ret
   14000190c:	40 53                	rex push rbx
   14000190e:	48 83 ec 20          	sub    rsp,0x20
   140001912:	8a d9                	mov    bl,cl
   140001914:	e8 eb 06 00 00       	call   0x140002004
   140001919:	33 d2                	xor    edx,edx
   14000191b:	85 c0                	test   eax,eax
   14000191d:	74 0b                	je     0x14000192a
   14000191f:	84 db                	test   bl,bl
   140001921:	75 07                	jne    0x14000192a
   140001923:	48 87 15 ce 3c 00 00 	xchg   QWORD PTR [rip+0x3cce],rdx        # 0x1400055f8
   14000192a:	48 83 c4 20          	add    rsp,0x20
   14000192e:	5b                   	pop    rbx
   14000192f:	c3                   	ret
   140001930:	40 53                	rex push rbx
   140001932:	48 83 ec 20          	sub    rsp,0x20
   140001936:	80 3d c3 3c 00 00 00 	cmp    BYTE PTR [rip+0x3cc3],0x0        # 0x140005600
   14000193d:	8a d9                	mov    bl,cl
   14000193f:	74 04                	je     0x140001945
   140001941:	84 d2                	test   dl,dl
   140001943:	75 0c                	jne    0x140001951
   140001945:	e8 3a 01 00 00       	call   0x140001a84
   14000194a:	8a cb                	mov    cl,bl
   14000194c:	e8 33 01 00 00       	call   0x140001a84
   140001951:	b0 01                	mov    al,0x1
   140001953:	48 83 c4 20          	add    rsp,0x20
   140001957:	5b                   	pop    rbx
   140001958:	c3                   	ret
   140001959:	cc                   	int3
   14000195a:	cc                   	int3
   14000195b:	cc                   	int3
   14000195c:	40 53                	rex push rbx
   14000195e:	48 83 ec 20          	sub    rsp,0x20
   140001962:	48 83 3d 9e 3c 00 00 	cmp    QWORD PTR [rip+0x3c9e],0xffffffffffffffff        # 0x140005608
   140001969:	ff 
   14000196a:	48 8b d9             	mov    rbx,rcx
   14000196d:	75 07                	jne    0x140001976
   14000196f:	e8 32 07 00 00       	call   0x1400020a6
   140001974:	eb 0f                	jmp    0x140001985
   140001976:	48 8b d3             	mov    rdx,rbx
   140001979:	48 8d 0d 88 3c 00 00 	lea    rcx,[rip+0x3c88]        # 0x140005608
   140001980:	e8 1b 07 00 00       	call   0x1400020a0
   140001985:	33 d2                	xor    edx,edx
   140001987:	85 c0                	test   eax,eax
   140001989:	48 0f 44 d3          	cmove  rdx,rbx
   14000198d:	48 8b c2             	mov    rax,rdx
   140001990:	48 83 c4 20          	add    rsp,0x20
   140001994:	5b                   	pop    rbx
   140001995:	c3                   	ret
   140001996:	cc                   	int3
   140001997:	cc                   	int3
   140001998:	48 83 ec 28          	sub    rsp,0x28
   14000199c:	e8 bb ff ff ff       	call   0x14000195c
   1400019a1:	48 f7 d8             	neg    rax
   1400019a4:	1b c0                	sbb    eax,eax
   1400019a6:	f7 d8                	neg    eax
   1400019a8:	ff c8                	dec    eax
   1400019aa:	48 83 c4 28          	add    rsp,0x28
   1400019ae:	c3                   	ret
   1400019af:	cc                   	int3
   1400019b0:	48 89 5c 24 18       	mov    QWORD PTR [rsp+0x18],rbx
   1400019b5:	55                   	push   rbp
   1400019b6:	48 8b ec             	mov    rbp,rsp
   1400019b9:	48 83 ec 30          	sub    rsp,0x30
   1400019bd:	48 8b 05 3c 36 00 00 	mov    rax,QWORD PTR [rip+0x363c]        # 0x140005000
   1400019c4:	48 bb 32 a2 df 2d 99 	movabs rbx,0x2b992ddfa232
   1400019cb:	2b 00 00 
   1400019ce:	48 3b c3             	cmp    rax,rbx
   1400019d1:	75 77                	jne    0x140001a4a
   1400019d3:	48 8d 4d 10          	lea    rcx,[rbp+0x10]
   1400019d7:	48 c7 45 10 00 00 00 	mov    QWORD PTR [rbp+0x10],0x0
   1400019de:	00 
   1400019df:	ff 15 7b 16 00 00    	call   QWORD PTR [rip+0x167b]        # 0x140003060
   1400019e5:	48 8b 45 10          	mov    rax,QWORD PTR [rbp+0x10]
   1400019e9:	48 89 45 f0          	mov    QWORD PTR [rbp-0x10],rax
   1400019ed:	ff 15 75 16 00 00    	call   QWORD PTR [rip+0x1675]        # 0x140003068
   1400019f3:	8b c0                	mov    eax,eax
   1400019f5:	48 31 45 f0          	xor    QWORD PTR [rbp-0x10],rax
   1400019f9:	ff 15 71 16 00 00    	call   QWORD PTR [rip+0x1671]        # 0x140003070
   1400019ff:	8b c0                	mov    eax,eax
   140001a01:	48 8d 4d 18          	lea    rcx,[rbp+0x18]
   140001a05:	48 31 45 f0          	xor    QWORD PTR [rbp-0x10],rax
   140001a09:	ff 15 69 16 00 00    	call   QWORD PTR [rip+0x1669]        # 0x140003078
   140001a0f:	8b 45 18             	mov    eax,DWORD PTR [rbp+0x18]
   140001a12:	48 8d 4d f0          	lea    rcx,[rbp-0x10]
   140001a16:	48 c1 e0 20          	shl    rax,0x20
   140001a1a:	48 33 45 18          	xor    rax,QWORD PTR [rbp+0x18]
   140001a1e:	48 33 45 f0          	xor    rax,QWORD PTR [rbp-0x10]
   140001a22:	48 33 c1             	xor    rax,rcx
   140001a25:	48 b9 ff ff ff ff ff 	movabs rcx,0xffffffffffff
   140001a2c:	ff 00 00 
   140001a2f:	48 23 c1             	and    rax,rcx
   140001a32:	48 b9 33 a2 df 2d 99 	movabs rcx,0x2b992ddfa233
   140001a39:	2b 00 00 
   140001a3c:	48 3b c3             	cmp    rax,rbx
   140001a3f:	48 0f 44 c1          	cmove  rax,rcx
   140001a43:	48 89 05 b6 35 00 00 	mov    QWORD PTR [rip+0x35b6],rax        # 0x140005000
   140001a4a:	48 8b 5c 24 50       	mov    rbx,QWORD PTR [rsp+0x50]
   140001a4f:	48 f7 d0             	not    rax
   140001a52:	48 89 05 e7 35 00 00 	mov    QWORD PTR [rip+0x35e7],rax        # 0x140005040
   140001a59:	48 83 c4 30          	add    rsp,0x30
   140001a5d:	5d                   	pop    rbp
   140001a5e:	c3                   	ret
   140001a5f:	cc                   	int3
   140001a60:	33 c0                	xor    eax,eax
   140001a62:	c3                   	ret
   140001a63:	cc                   	int3
   140001a64:	b8 01 00 00 00       	mov    eax,0x1
   140001a69:	c3                   	ret
   140001a6a:	cc                   	int3
   140001a6b:	cc                   	int3
   140001a6c:	b8 00 40 00 00       	mov    eax,0x4000
   140001a71:	c3                   	ret
   140001a72:	cc                   	int3
   140001a73:	cc                   	int3
   140001a74:	48 8d 0d c5 3b 00 00 	lea    rcx,[rip+0x3bc5]        # 0x140005640
   140001a7b:	48 ff 25 d6 15 00 00 	rex.W jmp QWORD PTR [rip+0x15d6]        # 0x140003058
   140001a82:	cc                   	int3
   140001a83:	cc                   	int3
   140001a84:	b0 01                	mov    al,0x1
   140001a86:	c3                   	ret
   140001a87:	cc                   	int3
   140001a88:	c2 00 00             	ret    0x0
   140001a8b:	cc                   	int3
   140001a8c:	48 8d 05 bd 3b 00 00 	lea    rax,[rip+0x3bbd]        # 0x140005650
   140001a93:	c3                   	ret
   140001a94:	48 83 ec 28          	sub    rsp,0x28
   140001a98:	e8 63 f5 ff ff       	call   0x140001000
   140001a9d:	48 83 08 24          	or     QWORD PTR [rax],0x24
   140001aa1:	e8 e6 ff ff ff       	call   0x140001a8c
   140001aa6:	48 83 08 02          	or     QWORD PTR [rax],0x2
   140001aaa:	48 83 c4 28          	add    rsp,0x28
   140001aae:	c3                   	ret
   140001aaf:	cc                   	int3
   140001ab0:	33 c0                	xor    eax,eax
   140001ab2:	39 05 94 35 00 00    	cmp    DWORD PTR [rip+0x3594],eax        # 0x14000504c
   140001ab8:	0f 94 c0             	sete   al
   140001abb:	c3                   	ret
   140001abc:	48 8d 05 b5 3b 00 00 	lea    rax,[rip+0x3bb5]        # 0x140005678
   140001ac3:	c3                   	ret
   140001ac4:	48 8d 05 a5 3b 00 00 	lea    rax,[rip+0x3ba5]        # 0x140005670
   140001acb:	c3                   	ret
   140001acc:	c7 05 82 3b 00 00 00 	mov    DWORD PTR [rip+0x3b82],0x0        # 0x140005658
   140001ad3:	00 00 00 
   140001ad6:	c3                   	ret
   140001ad7:	cc                   	int3
   140001ad8:	48 89 5c 24 08       	mov    QWORD PTR [rsp+0x8],rbx
   140001add:	55                   	push   rbp
   140001ade:	48 8d ac 24 40 fb ff 	lea    rbp,[rsp-0x4c0]
   140001ae5:	ff 
   140001ae6:	48 81 ec c0 05 00 00 	sub    rsp,0x5c0
   140001aed:	8b d9                	mov    ebx,ecx
   140001aef:	b9 17 00 00 00       	mov    ecx,0x17
   140001af4:	ff 15 4e 15 00 00    	call   QWORD PTR [rip+0x154e]        # 0x140003048
   140001afa:	85 c0                	test   eax,eax
   140001afc:	74 04                	je     0x140001b02
   140001afe:	8b cb                	mov    ecx,ebx
   140001b00:	cd 29                	int    0x29
   140001b02:	b9 03 00 00 00       	mov    ecx,0x3
   140001b07:	e8 c0 ff ff ff       	call   0x140001acc
   140001b0c:	33 d2                	xor    edx,edx
   140001b0e:	48 8d 4d f0          	lea    rcx,[rbp-0x10]
   140001b12:	41 b8 d0 04 00 00    	mov    r8d,0x4d0
   140001b18:	e8 05 05 00 00       	call   0x140002022
   140001b1d:	48 8d 4d f0          	lea    rcx,[rbp-0x10]
   140001b21:	ff 15 59 15 00 00    	call   QWORD PTR [rip+0x1559]        # 0x140003080
   140001b27:	48 8b 9d e8 00 00 00 	mov    rbx,QWORD PTR [rbp+0xe8]
   140001b2e:	48 8d 95 d8 04 00 00 	lea    rdx,[rbp+0x4d8]
   140001b35:	48 8b cb             	mov    rcx,rbx
   140001b38:	45 33 c0             	xor    r8d,r8d
   140001b3b:	ff 15 d7 14 00 00    	call   QWORD PTR [rip+0x14d7]        # 0x140003018
   140001b41:	48 85 c0             	test   rax,rax
   140001b44:	74 3f                	je     0x140001b85
   140001b46:	48 8b 95 d8 04 00 00 	mov    rdx,QWORD PTR [rbp+0x4d8]
   140001b4d:	48 8d 8d e0 04 00 00 	lea    rcx,[rbp+0x4e0]
   140001b54:	48 c7 44 24 38 00 00 	mov    QWORD PTR [rsp+0x38],0x0
   140001b5b:	00 00 
   140001b5d:	4c 8b c8             	mov    r9,rax
   140001b60:	48 89 4c 24 30       	mov    QWORD PTR [rsp+0x30],rcx
   140001b65:	4c 8b c3             	mov    r8,rbx
   140001b68:	48 8d 8d e8 04 00 00 	lea    rcx,[rbp+0x4e8]
   140001b6f:	48 89 4c 24 28       	mov    QWORD PTR [rsp+0x28],rcx
   140001b74:	48 8d 4d f0          	lea    rcx,[rbp-0x10]
   140001b78:	48 89 4c 24 20       	mov    QWORD PTR [rsp+0x20],rcx
   140001b7d:	33 c9                	xor    ecx,ecx
   140001b7f:	ff 15 9b 14 00 00    	call   QWORD PTR [rip+0x149b]        # 0x140003020
   140001b85:	48 8b 85 c8 04 00 00 	mov    rax,QWORD PTR [rbp+0x4c8]
   140001b8c:	48 8d 4c 24 50       	lea    rcx,[rsp+0x50]
   140001b91:	48 89 85 e8 00 00 00 	mov    QWORD PTR [rbp+0xe8],rax
   140001b98:	33 d2                	xor    edx,edx
   140001b9a:	48 8d 85 c8 04 00 00 	lea    rax,[rbp+0x4c8]
   140001ba1:	41 b8 98 00 00 00    	mov    r8d,0x98
   140001ba7:	48 83 c0 08          	add    rax,0x8
   140001bab:	48 89 85 88 00 00 00 	mov    QWORD PTR [rbp+0x88],rax
   140001bb2:	e8 6b 04 00 00       	call   0x140002022
   140001bb7:	48 8b 85 c8 04 00 00 	mov    rax,QWORD PTR [rbp+0x4c8]
   140001bbe:	48 89 44 24 60       	mov    QWORD PTR [rsp+0x60],rax
   140001bc3:	c7 44 24 50 15 00 00 	mov    DWORD PTR [rsp+0x50],0x40000015
   140001bca:	40 
   140001bcb:	c7 44 24 54 01 00 00 	mov    DWORD PTR [rsp+0x54],0x1
   140001bd2:	00 
   140001bd3:	ff 15 37 14 00 00    	call   QWORD PTR [rip+0x1437]        # 0x140003010
   140001bd9:	8b d8                	mov    ebx,eax
   140001bdb:	33 c9                	xor    ecx,ecx
   140001bdd:	48 8d 44 24 50       	lea    rax,[rsp+0x50]
   140001be2:	48 89 44 24 40       	mov    QWORD PTR [rsp+0x40],rax
   140001be7:	48 8d 45 f0          	lea    rax,[rbp-0x10]
   140001beb:	48 89 44 24 48       	mov    QWORD PTR [rsp+0x48],rax
   140001bf0:	ff 15 3a 14 00 00    	call   QWORD PTR [rip+0x143a]        # 0x140003030
   140001bf6:	48 8d 4c 24 40       	lea    rcx,[rsp+0x40]
   140001bfb:	ff 15 27 14 00 00    	call   QWORD PTR [rip+0x1427]        # 0x140003028
   140001c01:	85 c0                	test   eax,eax
   140001c03:	75 0d                	jne    0x140001c12
   140001c05:	83 fb 01             	cmp    ebx,0x1
   140001c08:	74 08                	je     0x140001c12
   140001c0a:	8d 48 03             	lea    ecx,[rax+0x3]
   140001c0d:	e8 ba fe ff ff       	call   0x140001acc
   140001c12:	48 8b 9c 24 d0 05 00 	mov    rbx,QWORD PTR [rsp+0x5d0]
   140001c19:	00 
   140001c1a:	48 81 c4 c0 05 00 00 	add    rsp,0x5c0
   140001c21:	5d                   	pop    rbp
   140001c22:	c3                   	ret
   140001c23:	cc                   	int3
   140001c24:	e9 37 fe ff ff       	jmp    0x140001a60
   140001c29:	cc                   	int3
   140001c2a:	cc                   	int3
   140001c2b:	cc                   	int3
   140001c2c:	48 83 ec 28          	sub    rsp,0x28
   140001c30:	33 c9                	xor    ecx,ecx
   140001c32:	ff 15 18 14 00 00    	call   QWORD PTR [rip+0x1418]        # 0x140003050
   140001c38:	48 85 c0             	test   rax,rax
   140001c3b:	74 3a                	je     0x140001c77
   140001c3d:	b9 4d 5a 00 00       	mov    ecx,0x5a4d
   140001c42:	66 39 08             	cmp    WORD PTR [rax],cx
   140001c45:	75 30                	jne    0x140001c77
   140001c47:	48 63 48 3c          	movsxd rcx,DWORD PTR [rax+0x3c]
   140001c4b:	81 3c 01 50 45 00 00 	cmp    DWORD PTR [rcx+rax*1],0x4550
   140001c52:	75 23                	jne    0x140001c77
   140001c54:	ba 0b 02 00 00       	mov    edx,0x20b
   140001c59:	66 39 54 01 18       	cmp    WORD PTR [rcx+rax*1+0x18],dx
   140001c5e:	75 17                	jne    0x140001c77
   140001c60:	83 bc 01 84 00 00 00 	cmp    DWORD PTR [rcx+rax*1+0x84],0xe
   140001c67:	0e 
   140001c68:	76 0d                	jbe    0x140001c77
   140001c6a:	83 bc 01 f8 00 00 00 	cmp    DWORD PTR [rcx+rax*1+0xf8],0x0
   140001c71:	00 
   140001c72:	0f 95 c0             	setne  al
   140001c75:	eb 02                	jmp    0x140001c79
   140001c77:	32 c0                	xor    al,al
   140001c79:	48 83 c4 28          	add    rsp,0x28
   140001c7d:	c3                   	ret
   140001c7e:	cc                   	int3
   140001c7f:	cc                   	int3
   140001c80:	48 8d 0d 09 00 00 00 	lea    rcx,[rip+0x9]        # 0x140001c90
   140001c87:	48 ff 25 a2 13 00 00 	rex.W jmp QWORD PTR [rip+0x13a2]        # 0x140003030
   140001c8e:	cc                   	int3
   140001c8f:	cc                   	int3
   140001c90:	48 89 5c 24 08       	mov    QWORD PTR [rsp+0x8],rbx
   140001c95:	57                   	push   rdi
   140001c96:	48 83 ec 20          	sub    rsp,0x20
   140001c9a:	48 8b 19             	mov    rbx,QWORD PTR [rcx]
   140001c9d:	48 8b f9             	mov    rdi,rcx
   140001ca0:	81 3b 63 73 6d e0    	cmp    DWORD PTR [rbx],0xe06d7363
   140001ca6:	75 24                	jne    0x140001ccc
   140001ca8:	83 7b 18 04          	cmp    DWORD PTR [rbx+0x18],0x4
   140001cac:	75 1e                	jne    0x140001ccc
   140001cae:	8b 53 20             	mov    edx,DWORD PTR [rbx+0x20]
   140001cb1:	81 fa 20 05 93 19    	cmp    edx,0x19930520
   140001cb7:	74 20                	je     0x140001cd9
   140001cb9:	8d 82 df fa 6c e6    	lea    eax,[rdx-0x19930521]
   140001cbf:	83 f8 01             	cmp    eax,0x1
   140001cc2:	76 15                	jbe    0x140001cd9
   140001cc4:	81 fa 00 40 99 01    	cmp    edx,0x1994000
   140001cca:	74 0d                	je     0x140001cd9
   140001ccc:	48 8b 5c 24 30       	mov    rbx,QWORD PTR [rsp+0x30]
   140001cd1:	33 c0                	xor    eax,eax
   140001cd3:	48 83 c4 20          	add    rsp,0x20
   140001cd7:	5f                   	pop    rdi
   140001cd8:	c3                   	ret
   140001cd9:	e8 38 03 00 00       	call   0x140002016
   140001cde:	48 89 18             	mov    QWORD PTR [rax],rbx
   140001ce1:	48 8b 5f 08          	mov    rbx,QWORD PTR [rdi+0x8]
   140001ce5:	e8 32 03 00 00       	call   0x14000201c
   140001cea:	48 89 18             	mov    QWORD PTR [rax],rbx
   140001ced:	e8 ba 03 00 00       	call   0x1400020ac
   140001cf2:	cc                   	int3
   140001cf3:	cc                   	int3
   140001cf4:	48 89 5c 24 08       	mov    QWORD PTR [rsp+0x8],rbx
   140001cf9:	57                   	push   rdi
   140001cfa:	48 83 ec 20          	sub    rsp,0x20
   140001cfe:	48 8d 1d 73 1b 00 00 	lea    rbx,[rip+0x1b73]        # 0x140003878
   140001d05:	48 8d 3d 6c 1b 00 00 	lea    rdi,[rip+0x1b6c]        # 0x140003878
   140001d0c:	eb 12                	jmp    0x140001d20
   140001d0e:	48 8b 03             	mov    rax,QWORD PTR [rbx]
   140001d11:	48 85 c0             	test   rax,rax
   140001d14:	74 06                	je     0x140001d1c
   140001d16:	ff 15 cc 14 00 00    	call   QWORD PTR [rip+0x14cc]        # 0x1400031e8
   140001d1c:	48 83 c3 08          	add    rbx,0x8
   140001d20:	48 3b df             	cmp    rbx,rdi
   140001d23:	72 e9                	jb     0x140001d0e
   140001d25:	48 8b 5c 24 30       	mov    rbx,QWORD PTR [rsp+0x30]
   140001d2a:	48 83 c4 20          	add    rsp,0x20
   140001d2e:	5f                   	pop    rdi
   140001d2f:	c3                   	ret
   140001d30:	48 89 5c 24 08       	mov    QWORD PTR [rsp+0x8],rbx
   140001d35:	57                   	push   rdi
   140001d36:	48 83 ec 20          	sub    rsp,0x20
   140001d3a:	48 8d 1d 47 1b 00 00 	lea    rbx,[rip+0x1b47]        # 0x140003888
   140001d41:	48 8d 3d 40 1b 00 00 	lea    rdi,[rip+0x1b40]        # 0x140003888
   140001d48:	eb 12                	jmp    0x140001d5c
   140001d4a:	48 8b 03             	mov    rax,QWORD PTR [rbx]
   140001d4d:	48 85 c0             	test   rax,rax
   140001d50:	74 06                	je     0x140001d58
   140001d52:	ff 15 90 14 00 00    	call   QWORD PTR [rip+0x1490]        # 0x1400031e8
   140001d58:	48 83 c3 08          	add    rbx,0x8
   140001d5c:	48 3b df             	cmp    rbx,rdi
   140001d5f:	72 e9                	jb     0x140001d4a
   140001d61:	48 8b 5c 24 30       	mov    rbx,QWORD PTR [rsp+0x30]
   140001d66:	48 83 c4 20          	add    rsp,0x20
   140001d6a:	5f                   	pop    rdi
   140001d6b:	c3                   	ret
   140001d6c:	48 89 5c 24 10       	mov    QWORD PTR [rsp+0x10],rbx
   140001d71:	48 89 6c 24 18       	mov    QWORD PTR [rsp+0x18],rbp
   140001d76:	48 89 74 24 20       	mov    QWORD PTR [rsp+0x20],rsi
   140001d7b:	57                   	push   rdi
   140001d7c:	48 83 ec 10          	sub    rsp,0x10
   140001d80:	33 c0                	xor    eax,eax
   140001d82:	33 c9                	xor    ecx,ecx
   140001d84:	0f a2                	cpuid
   140001d86:	81 f1 6e 74 65 6c    	xor    ecx,0x6c65746e
   140001d8c:	81 f2 69 6e 65 49    	xor    edx,0x49656e69
   140001d92:	0b d1                	or     edx,ecx
   140001d94:	8b e8                	mov    ebp,eax
   140001d96:	b8 01 00 00 00       	mov    eax,0x1
   140001d9b:	81 f3 47 65 6e 75    	xor    ebx,0x756e6547
   140001da1:	0b d3                	or     edx,ebx
   140001da3:	8d 48 ff             	lea    ecx,[rax-0x1]
   140001da6:	0f a2                	cpuid
   140001da8:	8b f9                	mov    edi,ecx
   140001daa:	75 5e                	jne    0x140001e0a
   140001dac:	25 f0 3f ff 0f       	and    eax,0xfff3ff0
   140001db1:	48 c7 05 a4 32 00 00 	mov    QWORD PTR [rip+0x32a4],0x8000        # 0x140005060
   140001db8:	00 80 00 00 
   140001dbc:	48 c7 05 a1 32 00 00 	mov    QWORD PTR [rip+0x32a1],0xffffffffffffffff        # 0x140005068
   140001dc3:	ff ff ff ff 
   140001dc7:	3d c0 06 01 00       	cmp    eax,0x106c0
   140001dcc:	74 28                	je     0x140001df6
   140001dce:	3d 60 06 02 00       	cmp    eax,0x20660
   140001dd3:	74 21                	je     0x140001df6
   140001dd5:	3d 70 06 02 00       	cmp    eax,0x20670
   140001dda:	74 1a                	je     0x140001df6
   140001ddc:	05 b0 f9 fc ff       	add    eax,0xfffcf9b0
   140001de1:	83 f8 20             	cmp    eax,0x20
   140001de4:	77 24                	ja     0x140001e0a
   140001de6:	48 b9 01 00 01 00 01 	movabs rcx,0x100010001
   140001ded:	00 00 00 
   140001df0:	48 0f a3 c1          	bt     rcx,rax
   140001df4:	73 14                	jae    0x140001e0a
   140001df6:	44 8b 05 63 38 00 00 	mov    r8d,DWORD PTR [rip+0x3863]        # 0x140005660
   140001dfd:	41 83 c8 01          	or     r8d,0x1
   140001e01:	44 89 05 58 38 00 00 	mov    DWORD PTR [rip+0x3858],r8d        # 0x140005660
   140001e08:	eb 07                	jmp    0x140001e11
   140001e0a:	44 8b 05 4f 38 00 00 	mov    r8d,DWORD PTR [rip+0x384f]        # 0x140005660
   140001e11:	45 33 c9             	xor    r9d,r9d
   140001e14:	41 8b f1             	mov    esi,r9d
   140001e17:	45 8b d1             	mov    r10d,r9d
   140001e1a:	45 8b d9             	mov    r11d,r9d
   140001e1d:	83 fd 07             	cmp    ebp,0x7
   140001e20:	7c 40                	jl     0x140001e62
   140001e22:	41 8d 41 07          	lea    eax,[r9+0x7]
   140001e26:	33 c9                	xor    ecx,ecx
   140001e28:	0f a2                	cpuid
   140001e2a:	8b f2                	mov    esi,edx
   140001e2c:	44 8b cb             	mov    r9d,ebx
   140001e2f:	0f ba e3 09          	bt     ebx,0x9
   140001e33:	73 0b                	jae    0x140001e40
   140001e35:	41 83 c8 02          	or     r8d,0x2
   140001e39:	44 89 05 20 38 00 00 	mov    DWORD PTR [rip+0x3820],r8d        # 0x140005660
   140001e40:	83 f8 01             	cmp    eax,0x1
   140001e43:	7c 0d                	jl     0x140001e52
   140001e45:	b8 07 00 00 00       	mov    eax,0x7
   140001e4a:	8d 48 fa             	lea    ecx,[rax-0x6]
   140001e4d:	0f a2                	cpuid
   140001e4f:	44 8b d2             	mov    r10d,edx
   140001e52:	b8 24 00 00 00       	mov    eax,0x24
   140001e57:	3b e8                	cmp    ebp,eax
   140001e59:	7c 07                	jl     0x140001e62
   140001e5b:	33 c9                	xor    ecx,ecx
   140001e5d:	0f a2                	cpuid
   140001e5f:	44 8b db             	mov    r11d,ebx
   140001e62:	48 8b 05 e7 31 00 00 	mov    rax,QWORD PTR [rip+0x31e7]        # 0x140005050
   140001e69:	48 83 e0 fe          	and    rax,0xfffffffffffffffe
   140001e6d:	c7 05 e1 31 00 00 01 	mov    DWORD PTR [rip+0x31e1],0x1        # 0x140005058
   140001e74:	00 00 00 
   140001e77:	c7 05 db 31 00 00 02 	mov    DWORD PTR [rip+0x31db],0x2        # 0x14000505c
   140001e7e:	00 00 00 
   140001e81:	48 89 05 c8 31 00 00 	mov    QWORD PTR [rip+0x31c8],rax        # 0x140005050
   140001e88:	0f ba e7 14          	bt     edi,0x14
   140001e8c:	73 1f                	jae    0x140001ead
   140001e8e:	48 83 e0 ef          	and    rax,0xffffffffffffffef
   140001e92:	c7 05 bc 31 00 00 02 	mov    DWORD PTR [rip+0x31bc],0x2        # 0x140005058
   140001e99:	00 00 00 
   140001e9c:	48 89 05 ad 31 00 00 	mov    QWORD PTR [rip+0x31ad],rax        # 0x140005050
   140001ea3:	c7 05 af 31 00 00 06 	mov    DWORD PTR [rip+0x31af],0x6        # 0x14000505c
   140001eaa:	00 00 00 
   140001ead:	0f ba e7 1b          	bt     edi,0x1b
   140001eb1:	0f 83 33 01 00 00    	jae    0x140001fea
   140001eb7:	33 c9                	xor    ecx,ecx
   140001eb9:	0f 01 d0             	xgetbv
   140001ebc:	48 c1 e2 20          	shl    rdx,0x20
   140001ec0:	48 0b d0             	or     rdx,rax
   140001ec3:	48 89 54 24 20       	mov    QWORD PTR [rsp+0x20],rdx
   140001ec8:	0f ba e7 1c          	bt     edi,0x1c
   140001ecc:	0f 83 fc 00 00 00    	jae    0x140001fce
   140001ed2:	48 8b 44 24 20       	mov    rax,QWORD PTR [rsp+0x20]
   140001ed7:	24 06                	and    al,0x6
   140001ed9:	3c 06                	cmp    al,0x6
   140001edb:	0f 85 ed 00 00 00    	jne    0x140001fce
   140001ee1:	8b 05 75 31 00 00    	mov    eax,DWORD PTR [rip+0x3175]        # 0x14000505c
   140001ee7:	b2 e0                	mov    dl,0xe0
   140001ee9:	83 c8 08             	or     eax,0x8
   140001eec:	c7 05 62 31 00 00 03 	mov    DWORD PTR [rip+0x3162],0x3        # 0x140005058
   140001ef3:	00 00 00 
   140001ef6:	89 05 60 31 00 00    	mov    DWORD PTR [rip+0x3160],eax        # 0x14000505c
   140001efc:	41 f6 c1 20          	test   r9b,0x20
   140001f00:	74 62                	je     0x140001f64
   140001f02:	83 c8 20             	or     eax,0x20
   140001f05:	c7 05 49 31 00 00 05 	mov    DWORD PTR [rip+0x3149],0x5        # 0x140005058
   140001f0c:	00 00 00 
   140001f0f:	89 05 47 31 00 00    	mov    DWORD PTR [rip+0x3147],eax        # 0x14000505c
   140001f15:	b9 00 00 03 d0       	mov    ecx,0xd0030000
   140001f1a:	48 8b 05 2f 31 00 00 	mov    rax,QWORD PTR [rip+0x312f]        # 0x140005050
   140001f21:	44 23 c9             	and    r9d,ecx
   140001f24:	48 83 e0 fd          	and    rax,0xfffffffffffffffd
   140001f28:	48 89 05 21 31 00 00 	mov    QWORD PTR [rip+0x3121],rax        # 0x140005050
   140001f2f:	44 3b c9             	cmp    r9d,ecx
   140001f32:	75 37                	jne    0x140001f6b
   140001f34:	48 8b 44 24 20       	mov    rax,QWORD PTR [rsp+0x20]
   140001f39:	22 c2                	and    al,dl
   140001f3b:	3a c2                	cmp    al,dl
   140001f3d:	75 25                	jne    0x140001f64
   140001f3f:	48 8b 05 0a 31 00 00 	mov    rax,QWORD PTR [rip+0x310a]        # 0x140005050
   140001f46:	83 0d 0f 31 00 00 40 	or     DWORD PTR [rip+0x310f],0x40        # 0x14000505c
   140001f4d:	48 83 e0 db          	and    rax,0xffffffffffffffdb
   140001f51:	c7 05 fd 30 00 00 06 	mov    DWORD PTR [rip+0x30fd],0x6        # 0x140005058
   140001f58:	00 00 00 
   140001f5b:	48 89 05 ee 30 00 00 	mov    QWORD PTR [rip+0x30ee],rax        # 0x140005050
   140001f62:	eb 07                	jmp    0x140001f6b
   140001f64:	48 8b 05 e5 30 00 00 	mov    rax,QWORD PTR [rip+0x30e5]        # 0x140005050
   140001f6b:	0f ba e6 17          	bt     esi,0x17
   140001f6f:	73 0c                	jae    0x140001f7d
   140001f71:	48 0f ba f0 18       	btr    rax,0x18
   140001f76:	48 89 05 d3 30 00 00 	mov    QWORD PTR [rip+0x30d3],rax        # 0x140005050
   140001f7d:	41 0f ba e2 13       	bt     r10d,0x13
   140001f82:	73 4a                	jae    0x140001fce
   140001f84:	48 8b 44 24 20       	mov    rax,QWORD PTR [rsp+0x20]
   140001f89:	22 c2                	and    al,dl
   140001f8b:	3a c2                	cmp    al,dl
   140001f8d:	75 3f                	jne    0x140001fce
   140001f8f:	41 8b cb             	mov    ecx,r11d
   140001f92:	41 8b c3             	mov    eax,r11d
   140001f95:	48 c1 e9 10          	shr    rcx,0x10
   140001f99:	25 ff 00 04 00       	and    eax,0x400ff
   140001f9e:	83 e1 06             	and    ecx,0x6
   140001fa1:	89 05 b5 36 00 00    	mov    DWORD PTR [rip+0x36b5],eax        # 0x14000565c
   140001fa7:	48 81 c9 29 00 00 01 	or     rcx,0x1000029
   140001fae:	48 f7 d1             	not    rcx
   140001fb1:	48 23 0d 98 30 00 00 	and    rcx,QWORD PTR [rip+0x3098]        # 0x140005050
   140001fb8:	48 89 0d 91 30 00 00 	mov    QWORD PTR [rip+0x3091],rcx        # 0x140005050
   140001fbf:	3c 01                	cmp    al,0x1
   140001fc1:	76 0b                	jbe    0x140001fce
   140001fc3:	48 83 e1 bf          	and    rcx,0xffffffffffffffbf
   140001fc7:	48 89 0d 82 30 00 00 	mov    QWORD PTR [rip+0x3082],rcx        # 0x140005050
   140001fce:	41 0f ba e2 15       	bt     r10d,0x15
   140001fd3:	73 15                	jae    0x140001fea
   140001fd5:	48 8b 44 24 20       	mov    rax,QWORD PTR [rsp+0x20]
   140001fda:	48 0f ba e0 13       	bt     rax,0x13
   140001fdf:	73 09                	jae    0x140001fea
   140001fe1:	48 0f ba 35 66 30 00 	btr    QWORD PTR [rip+0x3066],0x7        # 0x140005050
   140001fe8:	00 07 
   140001fea:	48 8b 5c 24 28       	mov    rbx,QWORD PTR [rsp+0x28]
   140001fef:	33 c0                	xor    eax,eax
   140001ff1:	48 8b 6c 24 30       	mov    rbp,QWORD PTR [rsp+0x30]
   140001ff6:	48 8b 74 24 38       	mov    rsi,QWORD PTR [rsp+0x38]
   140001ffb:	48 83 c4 10          	add    rsp,0x10
   140001fff:	5f                   	pop    rdi
   140002000:	c3                   	ret
   140002001:	cc                   	int3
   140002002:	cc                   	int3
   140002003:	cc                   	int3
   140002004:	33 c0                	xor    eax,eax
   140002006:	39 05 64 30 00 00    	cmp    DWORD PTR [rip+0x3064],eax        # 0x140005070
   14000200c:	0f 95 c0             	setne  al
   14000200f:	c3                   	ret
   140002010:	ff 25 82 10 00 00    	jmp    QWORD PTR [rip+0x1082]        # 0x140003098
   140002016:	ff 25 84 10 00 00    	jmp    QWORD PTR [rip+0x1084]        # 0x1400030a0
   14000201c:	ff 25 86 10 00 00    	jmp    QWORD PTR [rip+0x1086]        # 0x1400030a8
   140002022:	ff 25 88 10 00 00    	jmp    QWORD PTR [rip+0x1088]        # 0x1400030b0
   140002028:	ff 25 62 11 00 00    	jmp    QWORD PTR [rip+0x1162]        # 0x140003190
   14000202e:	ff 25 14 11 00 00    	jmp    QWORD PTR [rip+0x1114]        # 0x140003148
   140002034:	ff 25 be 10 00 00    	jmp    QWORD PTR [rip+0x10be]        # 0x1400030f8
   14000203a:	ff 25 48 11 00 00    	jmp    QWORD PTR [rip+0x1148]        # 0x140003188
   140002040:	ff 25 3a 11 00 00    	jmp    QWORD PTR [rip+0x113a]        # 0x140003180
   140002046:	ff 25 2c 11 00 00    	jmp    QWORD PTR [rip+0x112c]        # 0x140003178
   14000204c:	ff 25 1e 11 00 00    	jmp    QWORD PTR [rip+0x111e]        # 0x140003170
   140002052:	ff 25 10 11 00 00    	jmp    QWORD PTR [rip+0x1110]        # 0x140003168
   140002058:	ff 25 02 11 00 00    	jmp    QWORD PTR [rip+0x1102]        # 0x140003160
   14000205e:	ff 25 ec 10 00 00    	jmp    QWORD PTR [rip+0x10ec]        # 0x140003150
   140002064:	ff 25 4e 11 00 00    	jmp    QWORD PTR [rip+0x114e]        # 0x1400031b8
   14000206a:	ff 25 e8 10 00 00    	jmp    QWORD PTR [rip+0x10e8]        # 0x140003158
   140002070:	ff 25 ca 10 00 00    	jmp    QWORD PTR [rip+0x10ca]        # 0x140003140
   140002076:	ff 25 bc 10 00 00    	jmp    QWORD PTR [rip+0x10bc]        # 0x140003138
   14000207c:	ff 25 ae 10 00 00    	jmp    QWORD PTR [rip+0x10ae]        # 0x140003130
   140002082:	ff 25 98 10 00 00    	jmp    QWORD PTR [rip+0x1098]        # 0x140003120
   140002088:	ff 25 5a 10 00 00    	jmp    QWORD PTR [rip+0x105a]        # 0x1400030e8
   14000208e:	ff 25 44 10 00 00    	jmp    QWORD PTR [rip+0x1044]        # 0x1400030d8
   140002094:	ff 25 06 11 00 00    	jmp    QWORD PTR [rip+0x1106]        # 0x1400031a0
   14000209a:	ff 25 68 10 00 00    	jmp    QWORD PTR [rip+0x1068]        # 0x140003108
   1400020a0:	ff 25 6a 10 00 00    	jmp    QWORD PTR [rip+0x106a]        # 0x140003110
   1400020a6:	ff 25 6c 10 00 00    	jmp    QWORD PTR [rip+0x106c]        # 0x140003118
   1400020ac:	ff 25 76 10 00 00    	jmp    QWORD PTR [rip+0x1076]        # 0x140003128
   1400020b2:	cc                   	int3
   1400020b3:	cc                   	int3
   1400020b4:	48 83 ec 28          	sub    rsp,0x28
   1400020b8:	4d 8b 41 38          	mov    r8,QWORD PTR [r9+0x38]
   1400020bc:	48 8b ca             	mov    rcx,rdx
   1400020bf:	49 8b d1             	mov    rdx,r9
   1400020c2:	e8 0d 00 00 00       	call   0x1400020d4
   1400020c7:	b8 01 00 00 00       	mov    eax,0x1
   1400020cc:	48 83 c4 28          	add    rsp,0x28
   1400020d0:	c3                   	ret
   1400020d1:	cc                   	int3
   1400020d2:	cc                   	int3
   1400020d3:	cc                   	int3
   1400020d4:	40 53                	rex push rbx
   1400020d6:	45 8b 18             	mov    r11d,DWORD PTR [r8]
   1400020d9:	48 8b da             	mov    rbx,rdx
   1400020dc:	41 83 e3 f8          	and    r11d,0xfffffff8
   1400020e0:	4c 8b c9             	mov    r9,rcx
   1400020e3:	41 f6 00 04          	test   BYTE PTR [r8],0x4
   1400020e7:	4c 8b d1             	mov    r10,rcx
   1400020ea:	74 13                	je     0x1400020ff
   1400020ec:	41 8b 40 08          	mov    eax,DWORD PTR [r8+0x8]
   1400020f0:	4d 63 50 04          	movsxd r10,DWORD PTR [r8+0x4]
   1400020f4:	f7 d8                	neg    eax
   1400020f6:	4c 03 d1             	add    r10,rcx
   1400020f9:	48 63 c8             	movsxd rcx,eax
   1400020fc:	4c 23 d1             	and    r10,rcx
   1400020ff:	49 63 c3             	movsxd rax,r11d
   140002102:	4a 8b 14 10          	mov    rdx,QWORD PTR [rax+r10*1]
   140002106:	48 8b 43 10          	mov    rax,QWORD PTR [rbx+0x10]
   14000210a:	8b 48 08             	mov    ecx,DWORD PTR [rax+0x8]
   14000210d:	48 8b 43 08          	mov    rax,QWORD PTR [rbx+0x8]
   140002111:	f6 44 01 03 0f       	test   BYTE PTR [rcx+rax*1+0x3],0xf
   140002116:	74 10                	je     0x140002128
   140002118:	0f b6 44 01 03       	movzx  eax,BYTE PTR [rcx+rax*1+0x3]
   14000211d:	b9 f0 ff ff ff       	mov    ecx,0xfffffff0
   140002122:	48 23 c1             	and    rax,rcx
   140002125:	4c 03 c8             	add    r9,rax
   140002128:	4c 33 ca             	xor    r9,rdx
   14000212b:	49 8b c9             	mov    rcx,r9
   14000212e:	5b                   	pop    rbx
   14000212f:	e9 2c f2 ff ff       	jmp    0x140001360
   140002134:	ff 25 7e 0f 00 00    	jmp    QWORD PTR [rip+0xf7e]        # 0x1400030b8
   14000213a:	cc                   	int3
   14000213b:	cc                   	int3
   14000213c:	cc                   	int3
   14000213d:	cc                   	int3
   14000213e:	cc                   	int3
   14000213f:	cc                   	int3
   140002140:	cc                   	int3
   140002141:	cc                   	int3
   140002142:	cc                   	int3
   140002143:	cc                   	int3
   140002144:	cc                   	int3
   140002145:	cc                   	int3
   140002146:	66 66 0f 1f 84 00 00 	data16 nop WORD PTR [rax+rax*1+0x0]
   14000214d:	00 00 00 
   140002150:	ff e0                	jmp    rax
   140002152:	cc                   	int3
   140002153:	cc                   	int3
   140002154:	cc                   	int3
   140002155:	cc                   	int3
   140002156:	cc                   	int3
   140002157:	cc                   	int3
   140002158:	cc                   	int3
   140002159:	cc                   	int3
   14000215a:	cc                   	int3
   14000215b:	cc                   	int3
   14000215c:	cc                   	int3
   14000215d:	cc                   	int3
   14000215e:	cc                   	int3
   14000215f:	cc                   	int3
   140002160:	cc                   	int3
   140002161:	cc                   	int3
   140002162:	cc                   	int3
   140002163:	cc                   	int3
   140002164:	cc                   	int3
   140002165:	cc                   	int3
   140002166:	66 66 0f 1f 84 00 00 	data16 nop WORD PTR [rax+rax*1+0x0]
   14000216d:	00 00 00 
   140002170:	ff 25 72 10 00 00    	jmp    QWORD PTR [rip+0x1072]        # 0x1400031e8
   140002176:	40 55                	rex push rbp
   140002178:	48 83 ec 20          	sub    rsp,0x20
   14000217c:	48 8b ea             	mov    rbp,rdx
   14000217f:	48 8b d1             	mov    rdx,rcx
   140002182:	48 8b 09             	mov    rcx,QWORD PTR [rcx]
   140002185:	8b 09                	mov    ecx,DWORD PTR [rcx]
   140002187:	e8 9c fe ff ff       	call   0x140002028
   14000218c:	90                   	nop
   14000218d:	48 83 c4 20          	add    rsp,0x20
   140002191:	5d                   	pop    rbp
   140002192:	c3                   	ret
   140002193:	cc                   	int3
   140002194:	40 55                	rex push rbp
   140002196:	48 8b ea             	mov    rbp,rdx
   140002199:	48 8b 01             	mov    rax,QWORD PTR [rcx]
   14000219c:	33 c9                	xor    ecx,ecx
   14000219e:	81 38 05 00 00 c0    	cmp    DWORD PTR [rax],0xc0000005
   1400021a4:	0f 94 c1             	sete   cl
   1400021a7:	8b c1                	mov    eax,ecx
   1400021a9:	5d                   	pop    rbp
   1400021aa:	c3                   	ret
   1400021ab:	cc                   	int3
